
WS4.elf:     file format elf32-littlearm

Sections:
Idx Name          Size      VMA       LMA       File off  Algn
  0 .isr_vector   00000188  08000000  08000000  00001000  2**0
                  CONTENTS, ALLOC, LOAD, READONLY, DATA
  1 .text         00003cd4  08000188  08000188  00001188  2**2
                  CONTENTS, ALLOC, LOAD, READONLY, CODE
  2 .rodata       00000020  08003e5c  08003e5c  00004e5c  2**2
                  CONTENTS, ALLOC, LOAD, READONLY, DATA
  3 .ARM.extab    00000000  08003e7c  08003e7c  0000500c  2**0
                  CONTENTS
  4 .ARM          00000008  08003e7c  08003e7c  00004e7c  2**2
                  CONTENTS, ALLOC, LOAD, READONLY, DATA
  5 .preinit_array 00000000  08003e84  08003e84  0000500c  2**0
                  CONTENTS, ALLOC, LOAD, DATA
  6 .init_array   00000004  08003e84  08003e84  00004e84  2**2
                  CONTENTS, ALLOC, LOAD, READONLY, DATA
  7 .fini_array   00000004  08003e88  08003e88  00004e88  2**2
                  CONTENTS, ALLOC, LOAD, READONLY, DATA
  8 .data         0000000c  20000000  08003e8c  00005000  2**2
                  CONTENTS, ALLOC, LOAD, DATA
  9 .ccmram       00000000  10000000  10000000  0000500c  2**0
                  CONTENTS
 10 .bss          000001e4  2000000c  2000000c  0000500c  2**2
                  ALLOC
 11 ._user_heap_stack 00000600  200001f0  200001f0  0000500c  2**0
                  ALLOC
 12 .ARM.attributes 00000030  00000000  00000000  0000500c  2**0
                  CONTENTS, READONLY
 13 .debug_info   00009a2d  00000000  00000000  0000503c  2**0
                  CONTENTS, READONLY, DEBUGGING, OCTETS
 14 .debug_abbrev 00001caa  00000000  00000000  0000ea69  2**0
                  CONTENTS, READONLY, DEBUGGING, OCTETS
 15 .debug_aranges 00000958  00000000  00000000  00010718  2**3
                  CONTENTS, READONLY, DEBUGGING, OCTETS
 16 .debug_rnglists 00000730  00000000  00000000  00011070  2**0
                  CONTENTS, READONLY, DEBUGGING, OCTETS
 17 .debug_macro  0001fdfe  00000000  00000000  000117a0  2**0
                  CONTENTS, READONLY, DEBUGGING, OCTETS
 18 .debug_line   0000d403  00000000  00000000  0003159e  2**0
                  CONTENTS, READONLY, DEBUGGING, OCTETS
 19 .debug_str    000c0e0f  00000000  00000000  0003e9a1  2**0
                  CONTENTS, READONLY, DEBUGGING, OCTETS
 20 .comment      00000043  00000000  00000000  000ff7b0  2**0
                  CONTENTS, READONLY
 21 .debug_frame  000025fc  00000000  00000000  000ff7f4  2**2
                  CONTENTS, READONLY, DEBUGGING, OCTETS
 22 .debug_line_str 0000003f  00000000  00000000  00101df0  2**0
                  CONTENTS, READONLY, DEBUGGING, OCTETS

Disassembly of section .text:

08000188 <__do_global_dtors_aux>:
 8000188:	b510      	push	{r4, lr}
 800018a:	4c05      	ldr	r4, [pc, #20]	@ (80001a0 <__do_global_dtors_aux+0x18>)
 800018c:	7823      	ldrb	r3, [r4, #0]
 800018e:	b933      	cbnz	r3, 800019e <__do_global_dtors_aux+0x16>
 8000190:	4b04      	ldr	r3, [pc, #16]	@ (80001a4 <__do_global_dtors_aux+0x1c>)
 8000192:	b113      	cbz	r3, 800019a <__do_global_dtors_aux+0x12>
 8000194:	4804      	ldr	r0, [pc, #16]	@ (80001a8 <__do_global_dtors_aux+0x20>)
 8000196:	f3af 8000 	nop.w
 800019a:	2301      	movs	r3, #1
 800019c:	7023      	strb	r3, [r4, #0]
 800019e:	bd10      	pop	{r4, pc}
 80001a0:	2000000c 	.word	0x2000000c
 80001a4:	00000000 	.word	0x00000000
 80001a8:	08003e44 	.word	0x08003e44

080001ac <frame_dummy>:
 80001ac:	b508      	push	{r3, lr}
 80001ae:	4b03      	ldr	r3, [pc, #12]	@ (80001bc <frame_dummy+0x10>)
 80001b0:	b11b      	cbz	r3, 80001ba <frame_dummy+0xe>
 80001b2:	4903      	ldr	r1, [pc, #12]	@ (80001c0 <frame_dummy+0x14>)
 80001b4:	4803      	ldr	r0, [pc, #12]	@ (80001c4 <frame_dummy+0x18>)
 80001b6:	f3af 8000 	nop.w
 80001ba:	bd08      	pop	{r3, pc}
 80001bc:	00000000 	.word	0x00000000
 80001c0:	20000010 	.word	0x20000010
 80001c4:	08003e44 	.word	0x08003e44

080001c8 <__aeabi_uldivmod>:
 80001c8:	b953      	cbnz	r3, 80001e0 <__aeabi_uldivmod+0x18>
 80001ca:	b94a      	cbnz	r2, 80001e0 <__aeabi_uldivmod+0x18>
 80001cc:	2900      	cmp	r1, #0
 80001ce:	bf08      	it	eq
 80001d0:	2800      	cmpeq	r0, #0
 80001d2:	bf1c      	itt	ne
 80001d4:	f04f 31ff 	movne.w	r1, #4294967295
 80001d8:	f04f 30ff 	movne.w	r0, #4294967295
 80001dc:	f000 b96a 	b.w	80004b4 <__aeabi_idiv0>
 80001e0:	f1ad 0c08 	sub.w	ip, sp, #8
 80001e4:	e96d ce04 	strd	ip, lr, [sp, #-16]!
 80001e8:	f000 f806 	bl	80001f8 <__udivmoddi4>
 80001ec:	f8dd e004 	ldr.w	lr, [sp, #4]
 80001f0:	e9dd 2302 	ldrd	r2, r3, [sp, #8]
 80001f4:	b004      	add	sp, #16
 80001f6:	4770      	bx	lr

080001f8 <__udivmoddi4>:
 80001f8:	e92d 47f0 	stmdb	sp!, {r4, r5, r6, r7, r8, r9, sl, lr}
 80001fc:	9d08      	ldr	r5, [sp, #32]
 80001fe:	460c      	mov	r4, r1
 8000200:	2b00      	cmp	r3, #0
 8000202:	d14e      	bne.n	80002a2 <__udivmoddi4+0xaa>
 8000204:	4694      	mov	ip, r2
 8000206:	458c      	cmp	ip, r1
 8000208:	4686      	mov	lr, r0
 800020a:	fab2 f282 	clz	r2, r2
 800020e:	d962      	bls.n	80002d6 <__udivmoddi4+0xde>
 8000210:	b14a      	cbz	r2, 8000226 <__udivmoddi4+0x2e>
 8000212:	f1c2 0320 	rsb	r3, r2, #32
 8000216:	4091      	lsls	r1, r2
 8000218:	fa20 f303 	lsr.w	r3, r0, r3
 800021c:	fa0c fc02 	lsl.w	ip, ip, r2
 8000220:	4319      	orrs	r1, r3
 8000222:	fa00 fe02 	lsl.w	lr, r0, r2
 8000226:	ea4f 471c 	mov.w	r7, ip, lsr #16
 800022a:	fa1f f68c 	uxth.w	r6, ip
 800022e:	fbb1 f4f7 	udiv	r4, r1, r7
 8000232:	ea4f 431e 	mov.w	r3, lr, lsr #16
 8000236:	fb07 1114 	mls	r1, r7, r4, r1
 800023a:	ea43 4301 	orr.w	r3, r3, r1, lsl #16
 800023e:	fb04 f106 	mul.w	r1, r4, r6
 8000242:	4299      	cmp	r1, r3
 8000244:	d90a      	bls.n	800025c <__udivmoddi4+0x64>
 8000246:	eb1c 0303 	adds.w	r3, ip, r3
 800024a:	f104 30ff 	add.w	r0, r4, #4294967295
 800024e:	f080 8112 	bcs.w	8000476 <__udivmoddi4+0x27e>
 8000252:	4299      	cmp	r1, r3
 8000254:	f240 810f 	bls.w	8000476 <__udivmoddi4+0x27e>
 8000258:	3c02      	subs	r4, #2
 800025a:	4463      	add	r3, ip
 800025c:	1a59      	subs	r1, r3, r1
 800025e:	fa1f f38e 	uxth.w	r3, lr
 8000262:	fbb1 f0f7 	udiv	r0, r1, r7
 8000266:	fb07 1110 	mls	r1, r7, r0, r1
 800026a:	ea43 4301 	orr.w	r3, r3, r1, lsl #16
 800026e:	fb00 f606 	mul.w	r6, r0, r6
 8000272:	429e      	cmp	r6, r3
 8000274:	d90a      	bls.n	800028c <__udivmoddi4+0x94>
 8000276:	eb1c 0303 	adds.w	r3, ip, r3
 800027a:	f100 31ff 	add.w	r1, r0, #4294967295
 800027e:	f080 80fc 	bcs.w	800047a <__udivmoddi4+0x282>
 8000282:	429e      	cmp	r6, r3
 8000284:	f240 80f9 	bls.w	800047a <__udivmoddi4+0x282>
 8000288:	4463      	add	r3, ip
 800028a:	3802      	subs	r0, #2
 800028c:	1b9b      	subs	r3, r3, r6
 800028e:	ea40 4004 	orr.w	r0, r0, r4, lsl #16
 8000292:	2100      	movs	r1, #0
 8000294:	b11d      	cbz	r5, 800029e <__udivmoddi4+0xa6>
 8000296:	40d3      	lsrs	r3, r2
 8000298:	2200      	movs	r2, #0
 800029a:	e9c5 3200 	strd	r3, r2, [r5]
 800029e:	e8bd 87f0 	ldmia.w	sp!, {r4, r5, r6, r7, r8, r9, sl, pc}
 80002a2:	428b      	cmp	r3, r1
 80002a4:	d905      	bls.n	80002b2 <__udivmoddi4+0xba>
 80002a6:	b10d      	cbz	r5, 80002ac <__udivmoddi4+0xb4>
 80002a8:	e9c5 0100 	strd	r0, r1, [r5]
 80002ac:	2100      	movs	r1, #0
 80002ae:	4608      	mov	r0, r1
 80002b0:	e7f5      	b.n	800029e <__udivmoddi4+0xa6>
 80002b2:	fab3 f183 	clz	r1, r3
 80002b6:	2900      	cmp	r1, #0
 80002b8:	d146      	bne.n	8000348 <__udivmoddi4+0x150>
 80002ba:	42a3      	cmp	r3, r4
 80002bc:	d302      	bcc.n	80002c4 <__udivmoddi4+0xcc>
 80002be:	4290      	cmp	r0, r2
 80002c0:	f0c0 80f0 	bcc.w	80004a4 <__udivmoddi4+0x2ac>
 80002c4:	1a86      	subs	r6, r0, r2
 80002c6:	eb64 0303 	sbc.w	r3, r4, r3
 80002ca:	2001      	movs	r0, #1
 80002cc:	2d00      	cmp	r5, #0
 80002ce:	d0e6      	beq.n	800029e <__udivmoddi4+0xa6>
 80002d0:	e9c5 6300 	strd	r6, r3, [r5]
 80002d4:	e7e3      	b.n	800029e <__udivmoddi4+0xa6>
 80002d6:	2a00      	cmp	r2, #0
 80002d8:	f040 8090 	bne.w	80003fc <__udivmoddi4+0x204>
 80002dc:	eba1 040c 	sub.w	r4, r1, ip
 80002e0:	ea4f 481c 	mov.w	r8, ip, lsr #16
 80002e4:	fa1f f78c 	uxth.w	r7, ip
 80002e8:	2101      	movs	r1, #1
 80002ea:	fbb4 f6f8 	udiv	r6, r4, r8
 80002ee:	ea4f 431e 	mov.w	r3, lr, lsr #16
 80002f2:	fb08 4416 	mls	r4, r8, r6, r4
 80002f6:	ea43 4304 	orr.w	r3, r3, r4, lsl #16
 80002fa:	fb07 f006 	mul.w	r0, r7, r6
 80002fe:	4298      	cmp	r0, r3
 8000300:	d908      	bls.n	8000314 <__udivmoddi4+0x11c>
 8000302:	eb1c 0303 	adds.w	r3, ip, r3
 8000306:	f106 34ff 	add.w	r4, r6, #4294967295
 800030a:	d202      	bcs.n	8000312 <__udivmoddi4+0x11a>
 800030c:	4298      	cmp	r0, r3
 800030e:	f200 80cd 	bhi.w	80004ac <__udivmoddi4+0x2b4>
 8000312:	4626      	mov	r6, r4
 8000314:	1a1c      	subs	r4, r3, r0
 8000316:	fa1f f38e 	uxth.w	r3, lr
 800031a:	fbb4 f0f8 	udiv	r0, r4, r8
 800031e:	fb08 4410 	mls	r4, r8, r0, r4
 8000322:	ea43 4304 	orr.w	r3, r3, r4, lsl #16
 8000326:	fb00 f707 	mul.w	r7, r0, r7
 800032a:	429f      	cmp	r7, r3
 800032c:	d908      	bls.n	8000340 <__udivmoddi4+0x148>
 800032e:	eb1c 0303 	adds.w	r3, ip, r3
 8000332:	f100 34ff 	add.w	r4, r0, #4294967295
 8000336:	d202      	bcs.n	800033e <__udivmoddi4+0x146>
 8000338:	429f      	cmp	r7, r3
 800033a:	f200 80b0 	bhi.w	800049e <__udivmoddi4+0x2a6>
 800033e:	4620      	mov	r0, r4
 8000340:	1bdb      	subs	r3, r3, r7
 8000342:	ea40 4006 	orr.w	r0, r0, r6, lsl #16
 8000346:	e7a5      	b.n	8000294 <__udivmoddi4+0x9c>
 8000348:	f1c1 0620 	rsb	r6, r1, #32
 800034c:	408b      	lsls	r3, r1
 800034e:	fa22 f706 	lsr.w	r7, r2, r6
 8000352:	431f      	orrs	r7, r3
 8000354:	fa20 fc06 	lsr.w	ip, r0, r6
 8000358:	fa04 f301 	lsl.w	r3, r4, r1
 800035c:	ea43 030c 	orr.w	r3, r3, ip
 8000360:	40f4      	lsrs	r4, r6
 8000362:	fa00 f801 	lsl.w	r8, r0, r1
 8000366:	0c38      	lsrs	r0, r7, #16
 8000368:	ea4f 4913 	mov.w	r9, r3, lsr #16
 800036c:	fbb4 fef0 	udiv	lr, r4, r0
 8000370:	fa1f fc87 	uxth.w	ip, r7
 8000374:	fb00 441e 	mls	r4, r0, lr, r4
 8000378:	ea49 4404 	orr.w	r4, r9, r4, lsl #16
 800037c:	fb0e f90c 	mul.w	r9, lr, ip
 8000380:	45a1      	cmp	r9, r4
 8000382:	fa02 f201 	lsl.w	r2, r2, r1
 8000386:	d90a      	bls.n	800039e <__udivmoddi4+0x1a6>
 8000388:	193c      	adds	r4, r7, r4
 800038a:	f10e 3aff 	add.w	sl, lr, #4294967295
 800038e:	f080 8084 	bcs.w	800049a <__udivmoddi4+0x2a2>
 8000392:	45a1      	cmp	r9, r4
 8000394:	f240 8081 	bls.w	800049a <__udivmoddi4+0x2a2>
 8000398:	f1ae 0e02 	sub.w	lr, lr, #2
 800039c:	443c      	add	r4, r7
 800039e:	eba4 0409 	sub.w	r4, r4, r9
 80003a2:	fa1f f983 	uxth.w	r9, r3
 80003a6:	fbb4 f3f0 	udiv	r3, r4, r0
 80003aa:	fb00 4413 	mls	r4, r0, r3, r4
 80003ae:	ea49 4404 	orr.w	r4, r9, r4, lsl #16
 80003b2:	fb03 fc0c 	mul.w	ip, r3, ip
 80003b6:	45a4      	cmp	ip, r4
 80003b8:	d907      	bls.n	80003ca <__udivmoddi4+0x1d2>
 80003ba:	193c      	adds	r4, r7, r4
 80003bc:	f103 30ff 	add.w	r0, r3, #4294967295
 80003c0:	d267      	bcs.n	8000492 <__udivmoddi4+0x29a>
 80003c2:	45a4      	cmp	ip, r4
 80003c4:	d965      	bls.n	8000492 <__udivmoddi4+0x29a>
 80003c6:	3b02      	subs	r3, #2
 80003c8:	443c      	add	r4, r7
 80003ca:	ea43 400e 	orr.w	r0, r3, lr, lsl #16
 80003ce:	fba0 9302 	umull	r9, r3, r0, r2
 80003d2:	eba4 040c 	sub.w	r4, r4, ip
 80003d6:	429c      	cmp	r4, r3
 80003d8:	46ce      	mov	lr, r9
 80003da:	469c      	mov	ip, r3
 80003dc:	d351      	bcc.n	8000482 <__udivmoddi4+0x28a>
 80003de:	d04e      	beq.n	800047e <__udivmoddi4+0x286>
 80003e0:	b155      	cbz	r5, 80003f8 <__udivmoddi4+0x200>
 80003e2:	ebb8 030e 	subs.w	r3, r8, lr
 80003e6:	eb64 040c 	sbc.w	r4, r4, ip
 80003ea:	fa04 f606 	lsl.w	r6, r4, r6
 80003ee:	40cb      	lsrs	r3, r1
 80003f0:	431e      	orrs	r6, r3
 80003f2:	40cc      	lsrs	r4, r1
 80003f4:	e9c5 6400 	strd	r6, r4, [r5]
 80003f8:	2100      	movs	r1, #0
 80003fa:	e750      	b.n	800029e <__udivmoddi4+0xa6>
 80003fc:	f1c2 0320 	rsb	r3, r2, #32
 8000400:	fa20 f103 	lsr.w	r1, r0, r3
 8000404:	fa0c fc02 	lsl.w	ip, ip, r2
 8000408:	fa24 f303 	lsr.w	r3, r4, r3
 800040c:	4094      	lsls	r4, r2
 800040e:	430c      	orrs	r4, r1
 8000410:	ea4f 481c 	mov.w	r8, ip, lsr #16
 8000414:	fa00 fe02 	lsl.w	lr, r0, r2
 8000418:	fa1f f78c 	uxth.w	r7, ip
 800041c:	fbb3 f0f8 	udiv	r0, r3, r8
 8000420:	fb08 3110 	mls	r1, r8, r0, r3
 8000424:	0c23      	lsrs	r3, r4, #16
 8000426:	ea43 4301 	orr.w	r3, r3, r1, lsl #16
 800042a:	fb00 f107 	mul.w	r1, r0, r7
 800042e:	4299      	cmp	r1, r3
 8000430:	d908      	bls.n	8000444 <__udivmoddi4+0x24c>
 8000432:	eb1c 0303 	adds.w	r3, ip, r3
 8000436:	f100 36ff 	add.w	r6, r0, #4294967295
 800043a:	d22c      	bcs.n	8000496 <__udivmoddi4+0x29e>
 800043c:	4299      	cmp	r1, r3
 800043e:	d92a      	bls.n	8000496 <__udivmoddi4+0x29e>
 8000440:	3802      	subs	r0, #2
 8000442:	4463      	add	r3, ip
 8000444:	1a5b      	subs	r3, r3, r1
 8000446:	b2a4      	uxth	r4, r4
 8000448:	fbb3 f1f8 	udiv	r1, r3, r8
 800044c:	fb08 3311 	mls	r3, r8, r1, r3
 8000450:	ea44 4403 	orr.w	r4, r4, r3, lsl #16
 8000454:	fb01 f307 	mul.w	r3, r1, r7
 8000458:	42a3      	cmp	r3, r4
 800045a:	d908      	bls.n	800046e <__udivmoddi4+0x276>
 800045c:	eb1c 0404 	adds.w	r4, ip, r4
 8000460:	f101 36ff 	add.w	r6, r1, #4294967295
 8000464:	d213      	bcs.n	800048e <__udivmoddi4+0x296>
 8000466:	42a3      	cmp	r3, r4
 8000468:	d911      	bls.n	800048e <__udivmoddi4+0x296>
 800046a:	3902      	subs	r1, #2
 800046c:	4464      	add	r4, ip
 800046e:	1ae4      	subs	r4, r4, r3
 8000470:	ea41 4100 	orr.w	r1, r1, r0, lsl #16
 8000474:	e739      	b.n	80002ea <__udivmoddi4+0xf2>
 8000476:	4604      	mov	r4, r0
 8000478:	e6f0      	b.n	800025c <__udivmoddi4+0x64>
 800047a:	4608      	mov	r0, r1
 800047c:	e706      	b.n	800028c <__udivmoddi4+0x94>
 800047e:	45c8      	cmp	r8, r9
 8000480:	d2ae      	bcs.n	80003e0 <__udivmoddi4+0x1e8>
 8000482:	ebb9 0e02 	subs.w	lr, r9, r2
 8000486:	eb63 0c07 	sbc.w	ip, r3, r7
 800048a:	3801      	subs	r0, #1
 800048c:	e7a8      	b.n	80003e0 <__udivmoddi4+0x1e8>
 800048e:	4631      	mov	r1, r6
 8000490:	e7ed      	b.n	800046e <__udivmoddi4+0x276>
 8000492:	4603      	mov	r3, r0
 8000494:	e799      	b.n	80003ca <__udivmoddi4+0x1d2>
 8000496:	4630      	mov	r0, r6
 8000498:	e7d4      	b.n	8000444 <__udivmoddi4+0x24c>
 800049a:	46d6      	mov	lr, sl
 800049c:	e77f      	b.n	800039e <__udivmoddi4+0x1a6>
 800049e:	4463      	add	r3, ip
 80004a0:	3802      	subs	r0, #2
 80004a2:	e74d      	b.n	8000340 <__udivmoddi4+0x148>
 80004a4:	4606      	mov	r6, r0
 80004a6:	4623      	mov	r3, r4
 80004a8:	4608      	mov	r0, r1
 80004aa:	e70f      	b.n	80002cc <__udivmoddi4+0xd4>
 80004ac:	3e02      	subs	r6, #2
 80004ae:	4463      	add	r3, ip
 80004b0:	e730      	b.n	8000314 <__udivmoddi4+0x11c>
 80004b2:	bf00      	nop

080004b4 <__aeabi_idiv0>:
 80004b4:	4770      	bx	lr
 80004b6:	bf00      	nop

080004b8 <CS43L22_Init>:

/* Private user code ---------------------------------------------------------*/
/* USER CODE BEGIN 0 */

void CS43L22_Init(void)
{
 80004b8:	b580      	push	{r7, lr}
 80004ba:	b084      	sub	sp, #16
 80004bc:	af02      	add	r7, sp, #8
	// Enable chip
	HAL_GPIO_WritePin(GPIOD, GPIO_PIN_4, GPIO_PIN_SET);
 80004be:	2201      	movs	r2, #1
 80004c0:	2110      	movs	r1, #16
 80004c2:	4863      	ldr	r0, [pc, #396]	@ (8000650 <CS43L22_Init+0x198>)
 80004c4:	f001 fcae 	bl	8001e24 <HAL_GPIO_WritePin>
	//
	// Initialization
	//
	uint8_t TxBuffer[2];

	TxBuffer[0] = 0x0D;
 80004c8:	230d      	movs	r3, #13
 80004ca:	713b      	strb	r3, [r7, #4]
	TxBuffer[1] = 0x01;
 80004cc:	2301      	movs	r3, #1
 80004ce:	717b      	strb	r3, [r7, #5]
	HAL_I2C_Master_Transmit(&hi2c1, CS43L22_I2C_ADDRESS, (uint8_t*) &TxBuffer, 2, I2C_TIMEOUT);
 80004d0:	1d3a      	adds	r2, r7, #4
 80004d2:	230a      	movs	r3, #10
 80004d4:	9300      	str	r3, [sp, #0]
 80004d6:	2302      	movs	r3, #2
 80004d8:	2194      	movs	r1, #148	@ 0x94
 80004da:	485e      	ldr	r0, [pc, #376]	@ (8000654 <CS43L22_Init+0x19c>)
 80004dc:	f001 fe00 	bl	80020e0 <HAL_I2C_Master_Transmit>

	TxBuffer[0] = 0x00;
 80004e0:	2300      	movs	r3, #0
 80004e2:	713b      	strb	r3, [r7, #4]
	TxBuffer[1] = 0x99;
 80004e4:	2399      	movs	r3, #153	@ 0x99
 80004e6:	717b      	strb	r3, [r7, #5]
	HAL_I2C_Master_Transmit(&hi2c1, CS43L22_I2C_ADDRESS, (uint8_t*) &TxBuffer, 2, I2C_TIMEOUT);
 80004e8:	1d3a      	adds	r2, r7, #4
 80004ea:	230a      	movs	r3, #10
 80004ec:	9300      	str	r3, [sp, #0]
 80004ee:	2302      	movs	r3, #2
 80004f0:	2194      	movs	r1, #148	@ 0x94
 80004f2:	4858      	ldr	r0, [pc, #352]	@ (8000654 <CS43L22_Init+0x19c>)
 80004f4:	f001 fdf4 	bl	80020e0 <HAL_I2C_Master_Transmit>

	TxBuffer[0] = 0x47;
 80004f8:	2347      	movs	r3, #71	@ 0x47
 80004fa:	713b      	strb	r3, [r7, #4]
	TxBuffer[1] = 0x80;
 80004fc:	2380      	movs	r3, #128	@ 0x80
 80004fe:	717b      	strb	r3, [r7, #5]
	HAL_I2C_Master_Transmit(&hi2c1, CS43L22_I2C_ADDRESS, (uint8_t*) &TxBuffer, 2, I2C_TIMEOUT);
 8000500:	1d3a      	adds	r2, r7, #4
 8000502:	230a      	movs	r3, #10
 8000504:	9300      	str	r3, [sp, #0]
 8000506:	2302      	movs	r3, #2
 8000508:	2194      	movs	r1, #148	@ 0x94
 800050a:	4852      	ldr	r0, [pc, #328]	@ (8000654 <CS43L22_Init+0x19c>)
 800050c:	f001 fde8 	bl	80020e0 <HAL_I2C_Master_Transmit>

	TxBuffer[0] = 0x32;
 8000510:	2332      	movs	r3, #50	@ 0x32
 8000512:	713b      	strb	r3, [r7, #4]
	TxBuffer[1] = 0xFF;
 8000514:	23ff      	movs	r3, #255	@ 0xff
 8000516:	717b      	strb	r3, [r7, #5]
	HAL_I2C_Master_Transmit(&hi2c1, CS43L22_I2C_ADDRESS, (uint8_t*) &TxBuffer, 2, I2C_TIMEOUT);
 8000518:	1d3a      	adds	r2, r7, #4
 800051a:	230a      	movs	r3, #10
 800051c:	9300      	str	r3, [sp, #0]
 800051e:	2302      	movs	r3, #2
 8000520:	2194      	movs	r1, #148	@ 0x94
 8000522:	484c      	ldr	r0, [pc, #304]	@ (8000654 <CS43L22_Init+0x19c>)
 8000524:	f001 fddc 	bl	80020e0 <HAL_I2C_Master_Transmit>

	TxBuffer[0] = 0x32;
 8000528:	2332      	movs	r3, #50	@ 0x32
 800052a:	713b      	strb	r3, [r7, #4]
	TxBuffer[1] = 0x7F;
 800052c:	237f      	movs	r3, #127	@ 0x7f
 800052e:	717b      	strb	r3, [r7, #5]
	HAL_I2C_Master_Transmit(&hi2c1, CS43L22_I2C_ADDRESS, (uint8_t*) &TxBuffer, 2, I2C_TIMEOUT);
 8000530:	1d3a      	adds	r2, r7, #4
 8000532:	230a      	movs	r3, #10
 8000534:	9300      	str	r3, [sp, #0]
 8000536:	2302      	movs	r3, #2
 8000538:	2194      	movs	r1, #148	@ 0x94
 800053a:	4846      	ldr	r0, [pc, #280]	@ (8000654 <CS43L22_Init+0x19c>)
 800053c:	f001 fdd0 	bl	80020e0 <HAL_I2C_Master_Transmit>

	TxBuffer[0] = 0x00;
 8000540:	2300      	movs	r3, #0
 8000542:	713b      	strb	r3, [r7, #4]
	TxBuffer[1] = 0x00;
 8000544:	2300      	movs	r3, #0
 8000546:	717b      	strb	r3, [r7, #5]
	HAL_I2C_Master_Transmit(&hi2c1, CS43L22_I2C_ADDRESS, (uint8_t*) &TxBuffer, 2, I2C_TIMEOUT);
 8000548:	1d3a      	adds	r2, r7, #4
 800054a:	230a      	movs	r3, #10
 800054c:	9300      	str	r3, [sp, #0]
 800054e:	2302      	movs	r3, #2
 8000550:	2194      	movs	r1, #148	@ 0x94
 8000552:	4840      	ldr	r0, [pc, #256]	@ (8000654 <CS43L22_Init+0x19c>)
 8000554:	f001 fdc4 	bl	80020e0 <HAL_I2C_Master_Transmit>

	TxBuffer[0] = 0x04;
 8000558:	2304      	movs	r3, #4
 800055a:	713b      	strb	r3, [r7, #4]
	TxBuffer[1] = 0xAF;
 800055c:	23af      	movs	r3, #175	@ 0xaf
 800055e:	717b      	strb	r3, [r7, #5]
	HAL_I2C_Master_Transmit(&hi2c1, CS43L22_I2C_ADDRESS, (uint8_t*) &TxBuffer, 2, I2C_TIMEOUT);
 8000560:	1d3a      	adds	r2, r7, #4
 8000562:	230a      	movs	r3, #10
 8000564:	9300      	str	r3, [sp, #0]
 8000566:	2302      	movs	r3, #2
 8000568:	2194      	movs	r1, #148	@ 0x94
 800056a:	483a      	ldr	r0, [pc, #232]	@ (8000654 <CS43L22_Init+0x19c>)
 800056c:	f001 fdb8 	bl	80020e0 <HAL_I2C_Master_Transmit>

	TxBuffer[0] = 0x0D;
 8000570:	230d      	movs	r3, #13
 8000572:	713b      	strb	r3, [r7, #4]
	TxBuffer[1] = 0x70;
 8000574:	2370      	movs	r3, #112	@ 0x70
 8000576:	717b      	strb	r3, [r7, #5]
	HAL_I2C_Master_Transmit(&hi2c1, CS43L22_I2C_ADDRESS, (uint8_t*) &TxBuffer, 2, I2C_TIMEOUT);
 8000578:	1d3a      	adds	r2, r7, #4
 800057a:	230a      	movs	r3, #10
 800057c:	9300      	str	r3, [sp, #0]
 800057e:	2302      	movs	r3, #2
 8000580:	2194      	movs	r1, #148	@ 0x94
 8000582:	4834      	ldr	r0, [pc, #208]	@ (8000654 <CS43L22_Init+0x19c>)
 8000584:	f001 fdac 	bl	80020e0 <HAL_I2C_Master_Transmit>

	TxBuffer[0] = 0x05;
 8000588:	2305      	movs	r3, #5
 800058a:	713b      	strb	r3, [r7, #4]
	TxBuffer[1] = 0x81;
 800058c:	2381      	movs	r3, #129	@ 0x81
 800058e:	717b      	strb	r3, [r7, #5]
	HAL_I2C_Master_Transmit(&hi2c1, CS43L22_I2C_ADDRESS, (uint8_t*) &TxBuffer, 2, I2C_TIMEOUT);
 8000590:	1d3a      	adds	r2, r7, #4
 8000592:	230a      	movs	r3, #10
 8000594:	9300      	str	r3, [sp, #0]
 8000596:	2302      	movs	r3, #2
 8000598:	2194      	movs	r1, #148	@ 0x94
 800059a:	482e      	ldr	r0, [pc, #184]	@ (8000654 <CS43L22_Init+0x19c>)
 800059c:	f001 fda0 	bl	80020e0 <HAL_I2C_Master_Transmit>

	TxBuffer[0] = 0x06;
 80005a0:	2306      	movs	r3, #6
 80005a2:	713b      	strb	r3, [r7, #4]
	TxBuffer[1] = 0x07;
 80005a4:	2307      	movs	r3, #7
 80005a6:	717b      	strb	r3, [r7, #5]
	HAL_I2C_Master_Transmit(&hi2c1, CS43L22_I2C_ADDRESS, (uint8_t*) &TxBuffer, 2, I2C_TIMEOUT);
 80005a8:	1d3a      	adds	r2, r7, #4
 80005aa:	230a      	movs	r3, #10
 80005ac:	9300      	str	r3, [sp, #0]
 80005ae:	2302      	movs	r3, #2
 80005b0:	2194      	movs	r1, #148	@ 0x94
 80005b2:	4828      	ldr	r0, [pc, #160]	@ (8000654 <CS43L22_Init+0x19c>)
 80005b4:	f001 fd94 	bl	80020e0 <HAL_I2C_Master_Transmit>

	TxBuffer[0] = 0x0A;
 80005b8:	230a      	movs	r3, #10
 80005ba:	713b      	strb	r3, [r7, #4]
	TxBuffer[1] = 0x00;
 80005bc:	2300      	movs	r3, #0
 80005be:	717b      	strb	r3, [r7, #5]
	HAL_I2C_Master_Transmit(&hi2c1, CS43L22_I2C_ADDRESS, (uint8_t*) &TxBuffer, 2, I2C_TIMEOUT);
 80005c0:	1d3a      	adds	r2, r7, #4
 80005c2:	230a      	movs	r3, #10
 80005c4:	9300      	str	r3, [sp, #0]
 80005c6:	2302      	movs	r3, #2
 80005c8:	2194      	movs	r1, #148	@ 0x94
 80005ca:	4822      	ldr	r0, [pc, #136]	@ (8000654 <CS43L22_Init+0x19c>)
 80005cc:	f001 fd88 	bl	80020e0 <HAL_I2C_Master_Transmit>

	TxBuffer[0] = 0x27;
 80005d0:	2327      	movs	r3, #39	@ 0x27
 80005d2:	713b      	strb	r3, [r7, #4]
	TxBuffer[1] = 0x00;
 80005d4:	2300      	movs	r3, #0
 80005d6:	717b      	strb	r3, [r7, #5]
	HAL_I2C_Master_Transmit(&hi2c1, CS43L22_I2C_ADDRESS, (uint8_t*) &TxBuffer, 2, I2C_TIMEOUT);
 80005d8:	1d3a      	adds	r2, r7, #4
 80005da:	230a      	movs	r3, #10
 80005dc:	9300      	str	r3, [sp, #0]
 80005de:	2302      	movs	r3, #2
 80005e0:	2194      	movs	r1, #148	@ 0x94
 80005e2:	481c      	ldr	r0, [pc, #112]	@ (8000654 <CS43L22_Init+0x19c>)
 80005e4:	f001 fd7c 	bl	80020e0 <HAL_I2C_Master_Transmit>

	TxBuffer[0] = 0x1A;
 80005e8:	231a      	movs	r3, #26
 80005ea:	713b      	strb	r3, [r7, #4]
	TxBuffer[1] = 0x0A;
 80005ec:	230a      	movs	r3, #10
 80005ee:	717b      	strb	r3, [r7, #5]
	HAL_I2C_Master_Transmit(&hi2c1, CS43L22_I2C_ADDRESS, (uint8_t*) &TxBuffer, 2, I2C_TIMEOUT);
 80005f0:	1d3a      	adds	r2, r7, #4
 80005f2:	230a      	movs	r3, #10
 80005f4:	9300      	str	r3, [sp, #0]
 80005f6:	2302      	movs	r3, #2
 80005f8:	2194      	movs	r1, #148	@ 0x94
 80005fa:	4816      	ldr	r0, [pc, #88]	@ (8000654 <CS43L22_Init+0x19c>)
 80005fc:	f001 fd70 	bl	80020e0 <HAL_I2C_Master_Transmit>

	TxBuffer[0] = 0x1B;
 8000600:	231b      	movs	r3, #27
 8000602:	713b      	strb	r3, [r7, #4]
	TxBuffer[1] = 0x0A;
 8000604:	230a      	movs	r3, #10
 8000606:	717b      	strb	r3, [r7, #5]
	HAL_I2C_Master_Transmit(&hi2c1, CS43L22_I2C_ADDRESS, (uint8_t*) &TxBuffer, 2, I2C_TIMEOUT);
 8000608:	1d3a      	adds	r2, r7, #4
 800060a:	230a      	movs	r3, #10
 800060c:	9300      	str	r3, [sp, #0]
 800060e:	2302      	movs	r3, #2
 8000610:	2194      	movs	r1, #148	@ 0x94
 8000612:	4810      	ldr	r0, [pc, #64]	@ (8000654 <CS43L22_Init+0x19c>)
 8000614:	f001 fd64 	bl	80020e0 <HAL_I2C_Master_Transmit>

	TxBuffer[0] = 0x1F;
 8000618:	231f      	movs	r3, #31
 800061a:	713b      	strb	r3, [r7, #4]
	TxBuffer[1] = 0x0F;
 800061c:	230f      	movs	r3, #15
 800061e:	717b      	strb	r3, [r7, #5]
	HAL_I2C_Master_Transmit(&hi2c1, CS43L22_I2C_ADDRESS, (uint8_t*) &TxBuffer, 2, I2C_TIMEOUT);
 8000620:	1d3a      	adds	r2, r7, #4
 8000622:	230a      	movs	r3, #10
 8000624:	9300      	str	r3, [sp, #0]
 8000626:	2302      	movs	r3, #2
 8000628:	2194      	movs	r1, #148	@ 0x94
 800062a:	480a      	ldr	r0, [pc, #40]	@ (8000654 <CS43L22_Init+0x19c>)
 800062c:	f001 fd58 	bl	80020e0 <HAL_I2C_Master_Transmit>

	TxBuffer[0] = 0x02;
 8000630:	2302      	movs	r3, #2
 8000632:	713b      	strb	r3, [r7, #4]
	TxBuffer[1] = 0x9E;
 8000634:	239e      	movs	r3, #158	@ 0x9e
 8000636:	717b      	strb	r3, [r7, #5]
	HAL_I2C_Master_Transmit(&hi2c1, CS43L22_I2C_ADDRESS, (uint8_t*) &TxBuffer, 2, I2C_TIMEOUT);
 8000638:	1d3a      	adds	r2, r7, #4
 800063a:	230a      	movs	r3, #10
 800063c:	9300      	str	r3, [sp, #0]
 800063e:	2302      	movs	r3, #2
 8000640:	2194      	movs	r1, #148	@ 0x94
 8000642:	4804      	ldr	r0, [pc, #16]	@ (8000654 <CS43L22_Init+0x19c>)
 8000644:	f001 fd4c 	bl	80020e0 <HAL_I2C_Master_Transmit>
}
 8000648:	bf00      	nop
 800064a:	3708      	adds	r7, #8
 800064c:	46bd      	mov	sp, r7
 800064e:	bd80      	pop	{r7, pc}
 8000650:	40020c00 	.word	0x40020c00
 8000654:	20000028 	.word	0x20000028

08000658 <CS43L22_Beep>:

void CS43L22_Beep(soundToneType pitch, uint32_t duration_ms)
{
 8000658:	b580      	push	{r7, lr}
 800065a:	b086      	sub	sp, #24
 800065c:	af02      	add	r7, sp, #8
 800065e:	4603      	mov	r3, r0
 8000660:	6039      	str	r1, [r7, #0]
 8000662:	71fb      	strb	r3, [r7, #7]
	uint8_t TxBuffer[2];

	// Set volume and off time
	TxBuffer[0] = 0x1D;		// Register address
 8000664:	231d      	movs	r3, #29
 8000666:	733b      	strb	r3, [r7, #12]
	TxBuffer[1] = 0x00;		// Value (volume and off time)
 8000668:	2300      	movs	r3, #0
 800066a:	737b      	strb	r3, [r7, #13]
	HAL_I2C_Master_Transmit(&hi2c1, CS43L22_I2C_ADDRESS, (uint8_t*) &TxBuffer, 2, I2C_TIMEOUT);
 800066c:	f107 020c 	add.w	r2, r7, #12
 8000670:	230a      	movs	r3, #10
 8000672:	9300      	str	r3, [sp, #0]
 8000674:	2302      	movs	r3, #2
 8000676:	2194      	movs	r1, #148	@ 0x94
 8000678:	4844      	ldr	r0, [pc, #272]	@ (800078c <CS43L22_Beep+0x134>)
 800067a:	f001 fd31 	bl	80020e0 <HAL_I2C_Master_Transmit>

	// Set sound frequency
	TxBuffer[0] = 0x1C;		// Register address
 800067e:	231c      	movs	r3, #28
 8000680:	733b      	strb	r3, [r7, #12]
	switch (pitch)
 8000682:	79fb      	ldrb	r3, [r7, #7]
 8000684:	2b0f      	cmp	r3, #15
 8000686:	d853      	bhi.n	8000730 <CS43L22_Beep+0xd8>
 8000688:	a201      	add	r2, pc, #4	@ (adr r2, 8000690 <CS43L22_Beep+0x38>)
 800068a:	f852 f023 	ldr.w	pc, [r2, r3, lsl #2]
 800068e:	bf00      	nop
 8000690:	080006d1 	.word	0x080006d1
 8000694:	080006d7 	.word	0x080006d7
 8000698:	080006dd 	.word	0x080006dd
 800069c:	080006e3 	.word	0x080006e3
 80006a0:	080006e9 	.word	0x080006e9
 80006a4:	080006ef 	.word	0x080006ef
 80006a8:	080006f5 	.word	0x080006f5
 80006ac:	080006fb 	.word	0x080006fb
 80006b0:	08000701 	.word	0x08000701
 80006b4:	08000707 	.word	0x08000707
 80006b8:	0800070d 	.word	0x0800070d
 80006bc:	08000713 	.word	0x08000713
 80006c0:	08000719 	.word	0x08000719
 80006c4:	0800071f 	.word	0x0800071f
 80006c8:	08000725 	.word	0x08000725
 80006cc:	0800072b 	.word	0x0800072b
	{
		case C4:
			TxBuffer[1] = 0x00;
 80006d0:	2300      	movs	r3, #0
 80006d2:	737b      	strb	r3, [r7, #13]
			break;
 80006d4:	e02f      	b.n	8000736 <CS43L22_Beep+0xde>
		case C5:
			TxBuffer[1] = 0x10;
 80006d6:	2310      	movs	r3, #16
 80006d8:	737b      	strb	r3, [r7, #13]
			break;
 80006da:	e02c      	b.n	8000736 <CS43L22_Beep+0xde>
		case D5:
			TxBuffer[1] = 0x20;
 80006dc:	2320      	movs	r3, #32
 80006de:	737b      	strb	r3, [r7, #13]
			break;
 80006e0:	e029      	b.n	8000736 <CS43L22_Beep+0xde>
		case E5:
			TxBuffer[1] = 0x30;
 80006e2:	2330      	movs	r3, #48	@ 0x30
 80006e4:	737b      	strb	r3, [r7, #13]
			break;
 80006e6:	e026      	b.n	8000736 <CS43L22_Beep+0xde>
		case F5:
			TxBuffer[1] = 0x40;
 80006e8:	2340      	movs	r3, #64	@ 0x40
 80006ea:	737b      	strb	r3, [r7, #13]
			break;
 80006ec:	e023      	b.n	8000736 <CS43L22_Beep+0xde>
		case G5:
			TxBuffer[1] = 0x50;
 80006ee:	2350      	movs	r3, #80	@ 0x50
 80006f0:	737b      	strb	r3, [r7, #13]
			break;
 80006f2:	e020      	b.n	8000736 <CS43L22_Beep+0xde>
		case A5:
			TxBuffer[1] = 0x60;
 80006f4:	2360      	movs	r3, #96	@ 0x60
 80006f6:	737b      	strb	r3, [r7, #13]
			break;
 80006f8:	e01d      	b.n	8000736 <CS43L22_Beep+0xde>
		case B5:
			TxBuffer[1] = 0x70;
 80006fa:	2370      	movs	r3, #112	@ 0x70
 80006fc:	737b      	strb	r3, [r7, #13]
			break;
 80006fe:	e01a      	b.n	8000736 <CS43L22_Beep+0xde>
		case C6:
			TxBuffer[1] = 0x80;
 8000700:	2380      	movs	r3, #128	@ 0x80
 8000702:	737b      	strb	r3, [r7, #13]
			break;
 8000704:	e017      	b.n	8000736 <CS43L22_Beep+0xde>
		case D6:
			TxBuffer[1] = 0x90;
 8000706:	2390      	movs	r3, #144	@ 0x90
 8000708:	737b      	strb	r3, [r7, #13]
			break;
 800070a:	e014      	b.n	8000736 <CS43L22_Beep+0xde>
		case E6:
			TxBuffer[1] = 0xA0;
 800070c:	23a0      	movs	r3, #160	@ 0xa0
 800070e:	737b      	strb	r3, [r7, #13]
			break;
 8000710:	e011      	b.n	8000736 <CS43L22_Beep+0xde>
		case F6:
			TxBuffer[1] = 0xB0;
 8000712:	23b0      	movs	r3, #176	@ 0xb0
 8000714:	737b      	strb	r3, [r7, #13]
			break;
 8000716:	e00e      	b.n	8000736 <CS43L22_Beep+0xde>
		case G6:
			TxBuffer[1] = 0xC0;
 8000718:	23c0      	movs	r3, #192	@ 0xc0
 800071a:	737b      	strb	r3, [r7, #13]
			break;
 800071c:	e00b      	b.n	8000736 <CS43L22_Beep+0xde>
		case A6:
			TxBuffer[1] = 0xD0;
 800071e:	23d0      	movs	r3, #208	@ 0xd0
 8000720:	737b      	strb	r3, [r7, #13]
			break;
 8000722:	e008      	b.n	8000736 <CS43L22_Beep+0xde>
		case B6:
			TxBuffer[1] = 0xE0;
 8000724:	23e0      	movs	r3, #224	@ 0xe0
 8000726:	737b      	strb	r3, [r7, #13]
			break;
 8000728:	e005      	b.n	8000736 <CS43L22_Beep+0xde>
		case C7:
			TxBuffer[1] = 0xF0;
 800072a:	23f0      	movs	r3, #240	@ 0xf0
 800072c:	737b      	strb	r3, [r7, #13]
			break;
 800072e:	e002      	b.n	8000736 <CS43L22_Beep+0xde>
		// Assume C4 for all other cases
		case MAX_VALUE:
		default:
			TxBuffer[1] = 0x00;
 8000730:	2300      	movs	r3, #0
 8000732:	737b      	strb	r3, [r7, #13]
			break;
 8000734:	bf00      	nop
	}
	HAL_I2C_Master_Transmit(&hi2c1, CS43L22_I2C_ADDRESS, (uint8_t*) &TxBuffer, 2, I2C_TIMEOUT);
 8000736:	f107 020c 	add.w	r2, r7, #12
 800073a:	230a      	movs	r3, #10
 800073c:	9300      	str	r3, [sp, #0]
 800073e:	2302      	movs	r3, #2
 8000740:	2194      	movs	r1, #148	@ 0x94
 8000742:	4812      	ldr	r0, [pc, #72]	@ (800078c <CS43L22_Beep+0x134>)
 8000744:	f001 fccc 	bl	80020e0 <HAL_I2C_Master_Transmit>

	// Enable continuous mode (SOUND STARTED)
	TxBuffer[0] = 0x1E;		// Register address
 8000748:	231e      	movs	r3, #30
 800074a:	733b      	strb	r3, [r7, #12]
	TxBuffer[1] = 0xC0;		// Value (beep and tone configuration)
 800074c:	23c0      	movs	r3, #192	@ 0xc0
 800074e:	737b      	strb	r3, [r7, #13]
	HAL_I2C_Master_Transmit(&hi2c1, CS43L22_I2C_ADDRESS, (uint8_t*) &TxBuffer, 2, I2C_TIMEOUT);
 8000750:	f107 020c 	add.w	r2, r7, #12
 8000754:	230a      	movs	r3, #10
 8000756:	9300      	str	r3, [sp, #0]
 8000758:	2302      	movs	r3, #2
 800075a:	2194      	movs	r1, #148	@ 0x94
 800075c:	480b      	ldr	r0, [pc, #44]	@ (800078c <CS43L22_Beep+0x134>)
 800075e:	f001 fcbf 	bl	80020e0 <HAL_I2C_Master_Transmit>

	// Playing...
	HAL_Delay(duration_ms);
 8000762:	6838      	ldr	r0, [r7, #0]
 8000764:	f000 fd1c 	bl	80011a0 <HAL_Delay>

	// Disable continuous mode (SOUND STOPED)
	TxBuffer[0] = 0x1E;		// Register address
 8000768:	231e      	movs	r3, #30
 800076a:	733b      	strb	r3, [r7, #12]
	TxBuffer[1] = 0x00;		// Value (beep and tone configuration)
 800076c:	2300      	movs	r3, #0
 800076e:	737b      	strb	r3, [r7, #13]
	HAL_I2C_Master_Transmit(&hi2c1, CS43L22_I2C_ADDRESS, (uint8_t*) &TxBuffer, 2, I2C_TIMEOUT);
 8000770:	f107 020c 	add.w	r2, r7, #12
 8000774:	230a      	movs	r3, #10
 8000776:	9300      	str	r3, [sp, #0]
 8000778:	2302      	movs	r3, #2
 800077a:	2194      	movs	r1, #148	@ 0x94
 800077c:	4803      	ldr	r0, [pc, #12]	@ (800078c <CS43L22_Beep+0x134>)
 800077e:	f001 fcaf 	bl	80020e0 <HAL_I2C_Master_Transmit>
}
 8000782:	bf00      	nop
 8000784:	3710      	adds	r7, #16
 8000786:	46bd      	mov	sp, r7
 8000788:	bd80      	pop	{r7, pc}
 800078a:	bf00      	nop
 800078c:	20000028 	.word	0x20000028

08000790 <main>:
/**
  * @brief  The application entry point.
  * @retval int
  */
int main(void)
{
 8000790:	b580      	push	{r7, lr}
 8000792:	b082      	sub	sp, #8
 8000794:	af00      	add	r7, sp, #0
  /* USER CODE END 1 */

  /* MCU Configuration--------------------------------------------------------*/

  /* Reset of all peripherals, Initializes the Flash interface and the Systick. */
  HAL_Init();
 8000796:	f000 fc91 	bl	80010bc <HAL_Init>
  /* USER CODE BEGIN Init */

  /* USER CODE END Init */

  /* Configure the system clock */
  SystemClock_Config();
 800079a:	f000 f99b 	bl	8000ad4 <SystemClock_Config>
  /* USER CODE BEGIN SysInit */

  /* USER CODE END SysInit */

  /* Initialize all configured peripherals */
  MX_GPIO_Init();
 800079e:	f000 fa83 	bl	8000ca8 <MX_GPIO_Init>
  MX_DMA_Init();
 80007a2:	f000 fa61 	bl	8000c68 <MX_DMA_Init>
  MX_I2C1_Init();
 80007a6:	f000 fa03 	bl	8000bb0 <MX_I2C1_Init>
  MX_I2S3_Init();
 80007aa:	f000 fa2f 	bl	8000c0c <MX_I2S3_Init>
  /* USER CODE BEGIN 2 */

  // Init DAC
  CS43L22_Init();
 80007ae:	f7ff fe83 	bl	80004b8 <CS43L22_Init>
  // Transmit empty data
  HAL_I2S_Transmit_DMA(&hi2s3, (uint16_t *)dataI2S, 100);
 80007b2:	2264      	movs	r2, #100	@ 0x64
 80007b4:	49c4      	ldr	r1, [pc, #784]	@ (8000ac8 <main+0x338>)
 80007b6:	48c5      	ldr	r0, [pc, #788]	@ (8000acc <main+0x33c>)
 80007b8:	f002 f92c 	bl	8002a14 <HAL_I2S_Transmit_DMA>

  for (int i = 0; i < 3; i++){
 80007bc:	2300      	movs	r3, #0
 80007be:	607b      	str	r3, [r7, #4]
 80007c0:	e17c      	b.n	8000abc <main+0x32c>
  	HAL_GPIO_WritePin(GPIOD, GPIO_PIN_12, GPIO_PIN_SET);
 80007c2:	2201      	movs	r2, #1
 80007c4:	f44f 5180 	mov.w	r1, #4096	@ 0x1000
 80007c8:	48c1      	ldr	r0, [pc, #772]	@ (8000ad0 <main+0x340>)
 80007ca:	f001 fb2b 	bl	8001e24 <HAL_GPIO_WritePin>
	HAL_Delay(300);
 80007ce:	f44f 7096 	mov.w	r0, #300	@ 0x12c
 80007d2:	f000 fce5 	bl	80011a0 <HAL_Delay>
	HAL_GPIO_WritePin(GPIOD, GPIO_PIN_12, GPIO_PIN_RESET);
 80007d6:	2200      	movs	r2, #0
 80007d8:	f44f 5180 	mov.w	r1, #4096	@ 0x1000
 80007dc:	48bc      	ldr	r0, [pc, #752]	@ (8000ad0 <main+0x340>)
 80007de:	f001 fb21 	bl	8001e24 <HAL_GPIO_WritePin>
	HAL_GPIO_WritePin(GPIOD, GPIO_PIN_12, GPIO_PIN_SET);
 80007e2:	2201      	movs	r2, #1
 80007e4:	f44f 5180 	mov.w	r1, #4096	@ 0x1000
 80007e8:	48b9      	ldr	r0, [pc, #740]	@ (8000ad0 <main+0x340>)
 80007ea:	f001 fb1b 	bl	8001e24 <HAL_GPIO_WritePin>
	HAL_Delay(1000);
 80007ee:	f44f 707a 	mov.w	r0, #1000	@ 0x3e8
 80007f2:	f000 fcd5 	bl	80011a0 <HAL_Delay>
	HAL_GPIO_WritePin(GPIOD, GPIO_PIN_12, GPIO_PIN_RESET);
 80007f6:	2200      	movs	r2, #0
 80007f8:	f44f 5180 	mov.w	r1, #4096	@ 0x1000
 80007fc:	48b4      	ldr	r0, [pc, #720]	@ (8000ad0 <main+0x340>)
 80007fe:	f001 fb11 	bl	8001e24 <HAL_GPIO_WritePin>
	HAL_GPIO_WritePin(GPIOD, GPIO_PIN_12, GPIO_PIN_SET);
 8000802:	2201      	movs	r2, #1
 8000804:	f44f 5180 	mov.w	r1, #4096	@ 0x1000
 8000808:	48b1      	ldr	r0, [pc, #708]	@ (8000ad0 <main+0x340>)
 800080a:	f001 fb0b 	bl	8001e24 <HAL_GPIO_WritePin>
	HAL_Delay(300);
 800080e:	f44f 7096 	mov.w	r0, #300	@ 0x12c
 8000812:	f000 fcc5 	bl	80011a0 <HAL_Delay>
	HAL_GPIO_WritePin(GPIOD, GPIO_PIN_12, GPIO_PIN_RESET);
 8000816:	2200      	movs	r2, #0
 8000818:	f44f 5180 	mov.w	r1, #4096	@ 0x1000
 800081c:	48ac      	ldr	r0, [pc, #688]	@ (8000ad0 <main+0x340>)
 800081e:	f001 fb01 	bl	8001e24 <HAL_GPIO_WritePin>

	HAL_GPIO_WritePin(GPIOD, GPIO_PIN_12, GPIO_PIN_SET);
 8000822:	2201      	movs	r2, #1
 8000824:	f44f 5180 	mov.w	r1, #4096	@ 0x1000
 8000828:	48a9      	ldr	r0, [pc, #676]	@ (8000ad0 <main+0x340>)
 800082a:	f001 fafb 	bl	8001e24 <HAL_GPIO_WritePin>
	CS43L22_Beep(E5, 700);
 800082e:	f44f 712f 	mov.w	r1, #700	@ 0x2bc
 8000832:	2003      	movs	r0, #3
 8000834:	f7ff ff10 	bl	8000658 <CS43L22_Beep>
	HAL_GPIO_WritePin(GPIOD, GPIO_PIN_12, GPIO_PIN_RESET);
 8000838:	2200      	movs	r2, #0
 800083a:	f44f 5180 	mov.w	r1, #4096	@ 0x1000
 800083e:	48a4      	ldr	r0, [pc, #656]	@ (8000ad0 <main+0x340>)
 8000840:	f001 faf0 	bl	8001e24 <HAL_GPIO_WritePin>
	HAL_Delay(100);
 8000844:	2064      	movs	r0, #100	@ 0x64
 8000846:	f000 fcab 	bl	80011a0 <HAL_Delay>
	HAL_GPIO_WritePin(GPIOD, GPIO_PIN_13, GPIO_PIN_SET);
 800084a:	2201      	movs	r2, #1
 800084c:	f44f 5100 	mov.w	r1, #8192	@ 0x2000
 8000850:	489f      	ldr	r0, [pc, #636]	@ (8000ad0 <main+0x340>)
 8000852:	f001 fae7 	bl	8001e24 <HAL_GPIO_WritePin>
	CS43L22_Beep(C5, 500);
 8000856:	f44f 71fa 	mov.w	r1, #500	@ 0x1f4
 800085a:	2001      	movs	r0, #1
 800085c:	f7ff fefc 	bl	8000658 <CS43L22_Beep>
	HAL_GPIO_WritePin(GPIOD, GPIO_PIN_13, GPIO_PIN_RESET);
 8000860:	2200      	movs	r2, #0
 8000862:	f44f 5100 	mov.w	r1, #8192	@ 0x2000
 8000866:	489a      	ldr	r0, [pc, #616]	@ (8000ad0 <main+0x340>)
 8000868:	f001 fadc 	bl	8001e24 <HAL_GPIO_WritePin>
	HAL_Delay(100);
 800086c:	2064      	movs	r0, #100	@ 0x64
 800086e:	f000 fc97 	bl	80011a0 <HAL_Delay>
	HAL_GPIO_WritePin(GPIOD, GPIO_PIN_14, GPIO_PIN_SET);
 8000872:	2201      	movs	r2, #1
 8000874:	f44f 4180 	mov.w	r1, #16384	@ 0x4000
 8000878:	4895      	ldr	r0, [pc, #596]	@ (8000ad0 <main+0x340>)
 800087a:	f001 fad3 	bl	8001e24 <HAL_GPIO_WritePin>
	CS43L22_Beep(E5, 500);
 800087e:	f44f 71fa 	mov.w	r1, #500	@ 0x1f4
 8000882:	2003      	movs	r0, #3
 8000884:	f7ff fee8 	bl	8000658 <CS43L22_Beep>
	HAL_GPIO_WritePin(GPIOD, GPIO_PIN_14, GPIO_PIN_RESET);
 8000888:	2200      	movs	r2, #0
 800088a:	f44f 4180 	mov.w	r1, #16384	@ 0x4000
 800088e:	4890      	ldr	r0, [pc, #576]	@ (8000ad0 <main+0x340>)
 8000890:	f001 fac8 	bl	8001e24 <HAL_GPIO_WritePin>
	HAL_Delay(100);
 8000894:	2064      	movs	r0, #100	@ 0x64
 8000896:	f000 fc83 	bl	80011a0 <HAL_Delay>
	HAL_GPIO_WritePin(GPIOD, GPIO_PIN_15, GPIO_PIN_SET);
 800089a:	2201      	movs	r2, #1
 800089c:	f44f 4100 	mov.w	r1, #32768	@ 0x8000
 80008a0:	488b      	ldr	r0, [pc, #556]	@ (8000ad0 <main+0x340>)
 80008a2:	f001 fabf 	bl	8001e24 <HAL_GPIO_WritePin>
	CS43L22_Beep(C5, 500);
 80008a6:	f44f 71fa 	mov.w	r1, #500	@ 0x1f4
 80008aa:	2001      	movs	r0, #1
 80008ac:	f7ff fed4 	bl	8000658 <CS43L22_Beep>
	HAL_GPIO_WritePin(GPIOD, GPIO_PIN_15, GPIO_PIN_RESET);
 80008b0:	2200      	movs	r2, #0
 80008b2:	f44f 4100 	mov.w	r1, #32768	@ 0x8000
 80008b6:	4886      	ldr	r0, [pc, #536]	@ (8000ad0 <main+0x340>)
 80008b8:	f001 fab4 	bl	8001e24 <HAL_GPIO_WritePin>
	HAL_Delay(100);
 80008bc:	2064      	movs	r0, #100	@ 0x64
 80008be:	f000 fc6f 	bl	80011a0 <HAL_Delay>
	HAL_GPIO_WritePin(GPIOD, GPIO_PIN_12, GPIO_PIN_SET);
 80008c2:	2201      	movs	r2, #1
 80008c4:	f44f 5180 	mov.w	r1, #4096	@ 0x1000
 80008c8:	4881      	ldr	r0, [pc, #516]	@ (8000ad0 <main+0x340>)
 80008ca:	f001 faab 	bl	8001e24 <HAL_GPIO_WritePin>
	CS43L22_Beep(E5, 700);
 80008ce:	f44f 712f 	mov.w	r1, #700	@ 0x2bc
 80008d2:	2003      	movs	r0, #3
 80008d4:	f7ff fec0 	bl	8000658 <CS43L22_Beep>
	HAL_Delay(100);
 80008d8:	2064      	movs	r0, #100	@ 0x64
 80008da:	f000 fc61 	bl	80011a0 <HAL_Delay>
	CS43L22_Beep(C5, 700);
 80008de:	f44f 712f 	mov.w	r1, #700	@ 0x2bc
 80008e2:	2001      	movs	r0, #1
 80008e4:	f7ff feb8 	bl	8000658 <CS43L22_Beep>
	HAL_GPIO_WritePin(GPIOD, GPIO_PIN_12, GPIO_PIN_RESET);
 80008e8:	2200      	movs	r2, #0
 80008ea:	f44f 5180 	mov.w	r1, #4096	@ 0x1000
 80008ee:	4878      	ldr	r0, [pc, #480]	@ (8000ad0 <main+0x340>)
 80008f0:	f001 fa98 	bl	8001e24 <HAL_GPIO_WritePin>
	HAL_Delay(100);
 80008f4:	2064      	movs	r0, #100	@ 0x64
 80008f6:	f000 fc53 	bl	80011a0 <HAL_Delay>
	HAL_GPIO_WritePin(GPIOD, GPIO_PIN_13, GPIO_PIN_SET);
 80008fa:	2201      	movs	r2, #1
 80008fc:	f44f 5100 	mov.w	r1, #8192	@ 0x2000
 8000900:	4873      	ldr	r0, [pc, #460]	@ (8000ad0 <main+0x340>)
 8000902:	f001 fa8f 	bl	8001e24 <HAL_GPIO_WritePin>
	CS43L22_Beep(E5, 500);
 8000906:	f44f 71fa 	mov.w	r1, #500	@ 0x1f4
 800090a:	2003      	movs	r0, #3
 800090c:	f7ff fea4 	bl	8000658 <CS43L22_Beep>
	HAL_GPIO_WritePin(GPIOD, GPIO_PIN_13, GPIO_PIN_RESET);
 8000910:	2200      	movs	r2, #0
 8000912:	f44f 5100 	mov.w	r1, #8192	@ 0x2000
 8000916:	486e      	ldr	r0, [pc, #440]	@ (8000ad0 <main+0x340>)
 8000918:	f001 fa84 	bl	8001e24 <HAL_GPIO_WritePin>
	HAL_Delay(100);
 800091c:	2064      	movs	r0, #100	@ 0x64
 800091e:	f000 fc3f 	bl	80011a0 <HAL_Delay>
	HAL_GPIO_WritePin(GPIOD, GPIO_PIN_14, GPIO_PIN_SET);
 8000922:	2201      	movs	r2, #1
 8000924:	f44f 4180 	mov.w	r1, #16384	@ 0x4000
 8000928:	4869      	ldr	r0, [pc, #420]	@ (8000ad0 <main+0x340>)
 800092a:	f001 fa7b 	bl	8001e24 <HAL_GPIO_WritePin>
	CS43L22_Beep(C5, 500);
 800092e:	f44f 71fa 	mov.w	r1, #500	@ 0x1f4
 8000932:	2001      	movs	r0, #1
 8000934:	f7ff fe90 	bl	8000658 <CS43L22_Beep>
	HAL_GPIO_WritePin(GPIOD, GPIO_PIN_14, GPIO_PIN_RESET);
 8000938:	2200      	movs	r2, #0
 800093a:	f44f 4180 	mov.w	r1, #16384	@ 0x4000
 800093e:	4864      	ldr	r0, [pc, #400]	@ (8000ad0 <main+0x340>)
 8000940:	f001 fa70 	bl	8001e24 <HAL_GPIO_WritePin>
	HAL_Delay(100);
 8000944:	2064      	movs	r0, #100	@ 0x64
 8000946:	f000 fc2b 	bl	80011a0 <HAL_Delay>
	HAL_GPIO_WritePin(GPIOD, GPIO_PIN_14, GPIO_PIN_SET);
 800094a:	2201      	movs	r2, #1
 800094c:	f44f 4180 	mov.w	r1, #16384	@ 0x4000
 8000950:	485f      	ldr	r0, [pc, #380]	@ (8000ad0 <main+0x340>)
 8000952:	f001 fa67 	bl	8001e24 <HAL_GPIO_WritePin>
	CS43L22_Beep(G5, 700);
 8000956:	f44f 712f 	mov.w	r1, #700	@ 0x2bc
 800095a:	2005      	movs	r0, #5
 800095c:	f7ff fe7c 	bl	8000658 <CS43L22_Beep>
	HAL_GPIO_WritePin(GPIOD, GPIO_PIN_14, GPIO_PIN_RESET);
 8000960:	2200      	movs	r2, #0
 8000962:	f44f 4180 	mov.w	r1, #16384	@ 0x4000
 8000966:	485a      	ldr	r0, [pc, #360]	@ (8000ad0 <main+0x340>)
 8000968:	f001 fa5c 	bl	8001e24 <HAL_GPIO_WritePin>
	HAL_Delay(500);
 800096c:	f44f 70fa 	mov.w	r0, #500	@ 0x1f4
 8000970:	f000 fc16 	bl	80011a0 <HAL_Delay>

	HAL_GPIO_WritePin(GPIOD, GPIO_PIN_12, GPIO_PIN_SET);
 8000974:	2201      	movs	r2, #1
 8000976:	f44f 5180 	mov.w	r1, #4096	@ 0x1000
 800097a:	4855      	ldr	r0, [pc, #340]	@ (8000ad0 <main+0x340>)
 800097c:	f001 fa52 	bl	8001e24 <HAL_GPIO_WritePin>
	CS43L22_Beep(C6, 500);
 8000980:	f44f 71fa 	mov.w	r1, #500	@ 0x1f4
 8000984:	2008      	movs	r0, #8
 8000986:	f7ff fe67 	bl	8000658 <CS43L22_Beep>
	HAL_GPIO_WritePin(GPIOD, GPIO_PIN_12, GPIO_PIN_RESET);
 800098a:	2200      	movs	r2, #0
 800098c:	f44f 5180 	mov.w	r1, #4096	@ 0x1000
 8000990:	484f      	ldr	r0, [pc, #316]	@ (8000ad0 <main+0x340>)
 8000992:	f001 fa47 	bl	8001e24 <HAL_GPIO_WritePin>
	HAL_Delay(100);
 8000996:	2064      	movs	r0, #100	@ 0x64
 8000998:	f000 fc02 	bl	80011a0 <HAL_Delay>
	HAL_GPIO_WritePin(GPIOD, GPIO_PIN_13, GPIO_PIN_SET);
 800099c:	2201      	movs	r2, #1
 800099e:	f44f 5100 	mov.w	r1, #8192	@ 0x2000
 80009a2:	484b      	ldr	r0, [pc, #300]	@ (8000ad0 <main+0x340>)
 80009a4:	f001 fa3e 	bl	8001e24 <HAL_GPIO_WritePin>
	CS43L22_Beep(D6, 500);
 80009a8:	f44f 71fa 	mov.w	r1, #500	@ 0x1f4
 80009ac:	2009      	movs	r0, #9
 80009ae:	f7ff fe53 	bl	8000658 <CS43L22_Beep>
	HAL_GPIO_WritePin(GPIOD, GPIO_PIN_13, GPIO_PIN_RESET);
 80009b2:	2200      	movs	r2, #0
 80009b4:	f44f 5100 	mov.w	r1, #8192	@ 0x2000
 80009b8:	4845      	ldr	r0, [pc, #276]	@ (8000ad0 <main+0x340>)
 80009ba:	f001 fa33 	bl	8001e24 <HAL_GPIO_WritePin>
	HAL_Delay(100);
 80009be:	2064      	movs	r0, #100	@ 0x64
 80009c0:	f000 fbee 	bl	80011a0 <HAL_Delay>
	HAL_GPIO_WritePin(GPIOD, GPIO_PIN_14, GPIO_PIN_SET);
 80009c4:	2201      	movs	r2, #1
 80009c6:	f44f 4180 	mov.w	r1, #16384	@ 0x4000
 80009ca:	4841      	ldr	r0, [pc, #260]	@ (8000ad0 <main+0x340>)
 80009cc:	f001 fa2a 	bl	8001e24 <HAL_GPIO_WritePin>
	CS43L22_Beep(E6, 500);
 80009d0:	f44f 71fa 	mov.w	r1, #500	@ 0x1f4
 80009d4:	200a      	movs	r0, #10
 80009d6:	f7ff fe3f 	bl	8000658 <CS43L22_Beep>
	HAL_GPIO_WritePin(GPIOD, GPIO_PIN_14, GPIO_PIN_RESET);
 80009da:	2200      	movs	r2, #0
 80009dc:	f44f 4180 	mov.w	r1, #16384	@ 0x4000
 80009e0:	483b      	ldr	r0, [pc, #236]	@ (8000ad0 <main+0x340>)
 80009e2:	f001 fa1f 	bl	8001e24 <HAL_GPIO_WritePin>
	HAL_Delay(100);
 80009e6:	2064      	movs	r0, #100	@ 0x64
 80009e8:	f000 fbda 	bl	80011a0 <HAL_Delay>
	HAL_GPIO_WritePin(GPIOD, GPIO_PIN_15, GPIO_PIN_SET);
 80009ec:	2201      	movs	r2, #1
 80009ee:	f44f 4100 	mov.w	r1, #32768	@ 0x8000
 80009f2:	4837      	ldr	r0, [pc, #220]	@ (8000ad0 <main+0x340>)
 80009f4:	f001 fa16 	bl	8001e24 <HAL_GPIO_WritePin>
	CS43L22_Beep(F6, 500);
 80009f8:	f44f 71fa 	mov.w	r1, #500	@ 0x1f4
 80009fc:	200b      	movs	r0, #11
 80009fe:	f7ff fe2b 	bl	8000658 <CS43L22_Beep>
	HAL_GPIO_WritePin(GPIOD, GPIO_PIN_15, GPIO_PIN_RESET);
 8000a02:	2200      	movs	r2, #0
 8000a04:	f44f 4100 	mov.w	r1, #32768	@ 0x8000
 8000a08:	4831      	ldr	r0, [pc, #196]	@ (8000ad0 <main+0x340>)
 8000a0a:	f001 fa0b 	bl	8001e24 <HAL_GPIO_WritePin>
	HAL_Delay(100);
 8000a0e:	2064      	movs	r0, #100	@ 0x64
 8000a10:	f000 fbc6 	bl	80011a0 <HAL_Delay>
	HAL_GPIO_WritePin(GPIOD, GPIO_PIN_12, GPIO_PIN_SET);
 8000a14:	2201      	movs	r2, #1
 8000a16:	f44f 5180 	mov.w	r1, #4096	@ 0x1000
 8000a1a:	482d      	ldr	r0, [pc, #180]	@ (8000ad0 <main+0x340>)
 8000a1c:	f001 fa02 	bl	8001e24 <HAL_GPIO_WritePin>
	CS43L22_Beep(G6, 500);
 8000a20:	f44f 71fa 	mov.w	r1, #500	@ 0x1f4
 8000a24:	200c      	movs	r0, #12
 8000a26:	f7ff fe17 	bl	8000658 <CS43L22_Beep>
	HAL_GPIO_WritePin(GPIOD, GPIO_PIN_12, GPIO_PIN_RESET);
 8000a2a:	2200      	movs	r2, #0
 8000a2c:	f44f 5180 	mov.w	r1, #4096	@ 0x1000
 8000a30:	4827      	ldr	r0, [pc, #156]	@ (8000ad0 <main+0x340>)
 8000a32:	f001 f9f7 	bl	8001e24 <HAL_GPIO_WritePin>
	HAL_Delay(100);
 8000a36:	2064      	movs	r0, #100	@ 0x64
 8000a38:	f000 fbb2 	bl	80011a0 <HAL_Delay>
	HAL_GPIO_WritePin(GPIOD, GPIO_PIN_12, GPIO_PIN_SET);
 8000a3c:	2201      	movs	r2, #1
 8000a3e:	f44f 5180 	mov.w	r1, #4096	@ 0x1000
 8000a42:	4823      	ldr	r0, [pc, #140]	@ (8000ad0 <main+0x340>)
 8000a44:	f001 f9ee 	bl	8001e24 <HAL_GPIO_WritePin>
	CS43L22_Beep(F6, 500);
 8000a48:	f44f 71fa 	mov.w	r1, #500	@ 0x1f4
 8000a4c:	200b      	movs	r0, #11
 8000a4e:	f7ff fe03 	bl	8000658 <CS43L22_Beep>
	HAL_GPIO_WritePin(GPIOD, GPIO_PIN_12, GPIO_PIN_RESET);
 8000a52:	2200      	movs	r2, #0
 8000a54:	f44f 5180 	mov.w	r1, #4096	@ 0x1000
 8000a58:	481d      	ldr	r0, [pc, #116]	@ (8000ad0 <main+0x340>)
 8000a5a:	f001 f9e3 	bl	8001e24 <HAL_GPIO_WritePin>
	HAL_Delay(100);
 8000a5e:	2064      	movs	r0, #100	@ 0x64
 8000a60:	f000 fb9e 	bl	80011a0 <HAL_Delay>
	HAL_GPIO_WritePin(GPIOD, GPIO_PIN_13, GPIO_PIN_SET);
 8000a64:	2201      	movs	r2, #1
 8000a66:	f44f 5100 	mov.w	r1, #8192	@ 0x2000
 8000a6a:	4819      	ldr	r0, [pc, #100]	@ (8000ad0 <main+0x340>)
 8000a6c:	f001 f9da 	bl	8001e24 <HAL_GPIO_WritePin>
	CS43L22_Beep(C6, 500);
 8000a70:	f44f 71fa 	mov.w	r1, #500	@ 0x1f4
 8000a74:	2008      	movs	r0, #8
 8000a76:	f7ff fdef 	bl	8000658 <CS43L22_Beep>
	HAL_GPIO_WritePin(GPIOD, GPIO_PIN_13, GPIO_PIN_RESET);
 8000a7a:	2200      	movs	r2, #0
 8000a7c:	f44f 5100 	mov.w	r1, #8192	@ 0x2000
 8000a80:	4813      	ldr	r0, [pc, #76]	@ (8000ad0 <main+0x340>)
 8000a82:	f001 f9cf 	bl	8001e24 <HAL_GPIO_WritePin>
	HAL_Delay(100);
 8000a86:	2064      	movs	r0, #100	@ 0x64
 8000a88:	f000 fb8a 	bl	80011a0 <HAL_Delay>
	HAL_GPIO_WritePin(GPIOD, GPIO_PIN_14, GPIO_PIN_SET);
 8000a8c:	2201      	movs	r2, #1
 8000a8e:	f44f 4180 	mov.w	r1, #16384	@ 0x4000
 8000a92:	480f      	ldr	r0, [pc, #60]	@ (8000ad0 <main+0x340>)
 8000a94:	f001 f9c6 	bl	8001e24 <HAL_GPIO_WritePin>
	CS43L22_Beep(G5, 500);
 8000a98:	f44f 71fa 	mov.w	r1, #500	@ 0x1f4
 8000a9c:	2005      	movs	r0, #5
 8000a9e:	f7ff fddb 	bl	8000658 <CS43L22_Beep>
	HAL_GPIO_WritePin(GPIOD, GPIO_PIN_14, GPIO_PIN_RESET);
 8000aa2:	2200      	movs	r2, #0
 8000aa4:	f44f 4180 	mov.w	r1, #16384	@ 0x4000
 8000aa8:	4809      	ldr	r0, [pc, #36]	@ (8000ad0 <main+0x340>)
 8000aaa:	f001 f9bb 	bl	8001e24 <HAL_GPIO_WritePin>
	HAL_Delay(2000);
 8000aae:	f44f 60fa 	mov.w	r0, #2000	@ 0x7d0
 8000ab2:	f000 fb75 	bl	80011a0 <HAL_Delay>
  for (int i = 0; i < 3; i++){
 8000ab6:	687b      	ldr	r3, [r7, #4]
 8000ab8:	3301      	adds	r3, #1
 8000aba:	607b      	str	r3, [r7, #4]
 8000abc:	687b      	ldr	r3, [r7, #4]
 8000abe:	2b02      	cmp	r3, #2
 8000ac0:	f77f ae7f 	ble.w	80007c2 <main+0x32>

  /* USER CODE END 2 */

  /* Infinite loop */
  /* USER CODE BEGIN WHILE */
  while (1)
 8000ac4:	bf00      	nop
 8000ac6:	e7fd      	b.n	8000ac4 <main+0x334>
 8000ac8:	20000124 	.word	0x20000124
 8000acc:	2000007c 	.word	0x2000007c
 8000ad0:	40020c00 	.word	0x40020c00

08000ad4 <SystemClock_Config>:
/**
  * @brief System Clock Configuration
  * @retval None
  */
void SystemClock_Config(void)
{
 8000ad4:	b580      	push	{r7, lr}
 8000ad6:	b094      	sub	sp, #80	@ 0x50
 8000ad8:	af00      	add	r7, sp, #0
  RCC_OscInitTypeDef RCC_OscInitStruct = {0};
 8000ada:	f107 0320 	add.w	r3, r7, #32
 8000ade:	2230      	movs	r2, #48	@ 0x30
 8000ae0:	2100      	movs	r1, #0
 8000ae2:	4618      	mov	r0, r3
 8000ae4:	f003 f982 	bl	8003dec <memset>
  RCC_ClkInitTypeDef RCC_ClkInitStruct = {0};
 8000ae8:	f107 030c 	add.w	r3, r7, #12
 8000aec:	2200      	movs	r2, #0
 8000aee:	601a      	str	r2, [r3, #0]
 8000af0:	605a      	str	r2, [r3, #4]
 8000af2:	609a      	str	r2, [r3, #8]
 8000af4:	60da      	str	r2, [r3, #12]
 8000af6:	611a      	str	r2, [r3, #16]

  /** Macro to configure the PLL multiplication factor
  */
  __HAL_RCC_PLL_PLLM_CONFIG(16);
 8000af8:	4b2b      	ldr	r3, [pc, #172]	@ (8000ba8 <SystemClock_Config+0xd4>)
 8000afa:	685b      	ldr	r3, [r3, #4]
 8000afc:	f023 033f 	bic.w	r3, r3, #63	@ 0x3f
 8000b00:	4a29      	ldr	r2, [pc, #164]	@ (8000ba8 <SystemClock_Config+0xd4>)
 8000b02:	f043 0310 	orr.w	r3, r3, #16
 8000b06:	6053      	str	r3, [r2, #4]

  /** Macro to configure the PLL clock source
  */
  __HAL_RCC_PLL_PLLSOURCE_CONFIG(RCC_PLLSOURCE_HSI);
 8000b08:	4b27      	ldr	r3, [pc, #156]	@ (8000ba8 <SystemClock_Config+0xd4>)
 8000b0a:	685b      	ldr	r3, [r3, #4]
 8000b0c:	4a26      	ldr	r2, [pc, #152]	@ (8000ba8 <SystemClock_Config+0xd4>)
 8000b0e:	f423 0380 	bic.w	r3, r3, #4194304	@ 0x400000
 8000b12:	6053      	str	r3, [r2, #4]

  /** Configure the main internal regulator output voltage
  */
  __HAL_RCC_PWR_CLK_ENABLE();
 8000b14:	2300      	movs	r3, #0
 8000b16:	60bb      	str	r3, [r7, #8]
 8000b18:	4b23      	ldr	r3, [pc, #140]	@ (8000ba8 <SystemClock_Config+0xd4>)
 8000b1a:	6c1b      	ldr	r3, [r3, #64]	@ 0x40
 8000b1c:	4a22      	ldr	r2, [pc, #136]	@ (8000ba8 <SystemClock_Config+0xd4>)
 8000b1e:	f043 5380 	orr.w	r3, r3, #268435456	@ 0x10000000
 8000b22:	6413      	str	r3, [r2, #64]	@ 0x40
 8000b24:	4b20      	ldr	r3, [pc, #128]	@ (8000ba8 <SystemClock_Config+0xd4>)
 8000b26:	6c1b      	ldr	r3, [r3, #64]	@ 0x40
 8000b28:	f003 5380 	and.w	r3, r3, #268435456	@ 0x10000000
 8000b2c:	60bb      	str	r3, [r7, #8]
 8000b2e:	68bb      	ldr	r3, [r7, #8]
  __HAL_PWR_VOLTAGESCALING_CONFIG(PWR_REGULATOR_VOLTAGE_SCALE1);
 8000b30:	2300      	movs	r3, #0
 8000b32:	607b      	str	r3, [r7, #4]
 8000b34:	4b1d      	ldr	r3, [pc, #116]	@ (8000bac <SystemClock_Config+0xd8>)
 8000b36:	681b      	ldr	r3, [r3, #0]
 8000b38:	4a1c      	ldr	r2, [pc, #112]	@ (8000bac <SystemClock_Config+0xd8>)
 8000b3a:	f443 4380 	orr.w	r3, r3, #16384	@ 0x4000
 8000b3e:	6013      	str	r3, [r2, #0]
 8000b40:	4b1a      	ldr	r3, [pc, #104]	@ (8000bac <SystemClock_Config+0xd8>)
 8000b42:	681b      	ldr	r3, [r3, #0]
 8000b44:	f403 4380 	and.w	r3, r3, #16384	@ 0x4000
 8000b48:	607b      	str	r3, [r7, #4]
 8000b4a:	687b      	ldr	r3, [r7, #4]

  /** Initializes the RCC Oscillators according to the specified parameters
  * in the RCC_OscInitTypeDef structure.
  */
  RCC_OscInitStruct.OscillatorType = RCC_OSCILLATORTYPE_HSI;
 8000b4c:	2302      	movs	r3, #2
 8000b4e:	623b      	str	r3, [r7, #32]
  RCC_OscInitStruct.HSIState = RCC_HSI_ON;
 8000b50:	2301      	movs	r3, #1
 8000b52:	62fb      	str	r3, [r7, #44]	@ 0x2c
  RCC_OscInitStruct.HSICalibrationValue = RCC_HSICALIBRATION_DEFAULT;
 8000b54:	2310      	movs	r3, #16
 8000b56:	633b      	str	r3, [r7, #48]	@ 0x30
  RCC_OscInitStruct.PLL.PLLState = RCC_PLL_NONE;
 8000b58:	2300      	movs	r3, #0
 8000b5a:	63bb      	str	r3, [r7, #56]	@ 0x38
  RCC_OscInitStruct.PLL.PLLSource = RCC_PLLSOURCE_HSI;
 8000b5c:	2300      	movs	r3, #0
 8000b5e:	63fb      	str	r3, [r7, #60]	@ 0x3c
  if (HAL_RCC_OscConfig(&RCC_OscInitStruct) != HAL_OK)
 8000b60:	f107 0320 	add.w	r3, r7, #32
 8000b64:	4618      	mov	r0, r3
 8000b66:	f002 fbbb 	bl	80032e0 <HAL_RCC_OscConfig>
 8000b6a:	4603      	mov	r3, r0
 8000b6c:	2b00      	cmp	r3, #0
 8000b6e:	d001      	beq.n	8000b74 <SystemClock_Config+0xa0>
  {
    Error_Handler();
 8000b70:	f000 f8fa 	bl	8000d68 <Error_Handler>
  }

  /** Initializes the CPU, AHB and APB buses clocks
  */
  RCC_ClkInitStruct.ClockType = RCC_CLOCKTYPE_HCLK|RCC_CLOCKTYPE_SYSCLK
 8000b74:	230f      	movs	r3, #15
 8000b76:	60fb      	str	r3, [r7, #12]
                              |RCC_CLOCKTYPE_PCLK1|RCC_CLOCKTYPE_PCLK2;
  RCC_ClkInitStruct.SYSCLKSource = RCC_SYSCLKSOURCE_HSI;
 8000b78:	2300      	movs	r3, #0
 8000b7a:	613b      	str	r3, [r7, #16]
  RCC_ClkInitStruct.AHBCLKDivider = RCC_SYSCLK_DIV1;
 8000b7c:	2300      	movs	r3, #0
 8000b7e:	617b      	str	r3, [r7, #20]
  RCC_ClkInitStruct.APB1CLKDivider = RCC_HCLK_DIV1;
 8000b80:	2300      	movs	r3, #0
 8000b82:	61bb      	str	r3, [r7, #24]
  RCC_ClkInitStruct.APB2CLKDivider = RCC_HCLK_DIV1;
 8000b84:	2300      	movs	r3, #0
 8000b86:	61fb      	str	r3, [r7, #28]

  if (HAL_RCC_ClockConfig(&RCC_ClkInitStruct, FLASH_LATENCY_0) != HAL_OK)
 8000b88:	f107 030c 	add.w	r3, r7, #12
 8000b8c:	2100      	movs	r1, #0
 8000b8e:	4618      	mov	r0, r3
 8000b90:	f002 fe1e 	bl	80037d0 <HAL_RCC_ClockConfig>
 8000b94:	4603      	mov	r3, r0
 8000b96:	2b00      	cmp	r3, #0
 8000b98:	d001      	beq.n	8000b9e <SystemClock_Config+0xca>
  {
    Error_Handler();
 8000b9a:	f000 f8e5 	bl	8000d68 <Error_Handler>
  }
}
 8000b9e:	bf00      	nop
 8000ba0:	3750      	adds	r7, #80	@ 0x50
 8000ba2:	46bd      	mov	sp, r7
 8000ba4:	bd80      	pop	{r7, pc}
 8000ba6:	bf00      	nop
 8000ba8:	40023800 	.word	0x40023800
 8000bac:	40007000 	.word	0x40007000

08000bb0 <MX_I2C1_Init>:
  * @brief I2C1 Initialization Function
  * @param None
  * @retval None
  */
static void MX_I2C1_Init(void)
{
 8000bb0:	b580      	push	{r7, lr}
 8000bb2:	af00      	add	r7, sp, #0
  /* USER CODE END I2C1_Init 0 */

  /* USER CODE BEGIN I2C1_Init 1 */

  /* USER CODE END I2C1_Init 1 */
  hi2c1.Instance = I2C1;
 8000bb4:	4b12      	ldr	r3, [pc, #72]	@ (8000c00 <MX_I2C1_Init+0x50>)
 8000bb6:	4a13      	ldr	r2, [pc, #76]	@ (8000c04 <MX_I2C1_Init+0x54>)
 8000bb8:	601a      	str	r2, [r3, #0]
  hi2c1.Init.ClockSpeed = 100000;
 8000bba:	4b11      	ldr	r3, [pc, #68]	@ (8000c00 <MX_I2C1_Init+0x50>)
 8000bbc:	4a12      	ldr	r2, [pc, #72]	@ (8000c08 <MX_I2C1_Init+0x58>)
 8000bbe:	605a      	str	r2, [r3, #4]
  hi2c1.Init.DutyCycle = I2C_DUTYCYCLE_2;
 8000bc0:	4b0f      	ldr	r3, [pc, #60]	@ (8000c00 <MX_I2C1_Init+0x50>)
 8000bc2:	2200      	movs	r2, #0
 8000bc4:	609a      	str	r2, [r3, #8]
  hi2c1.Init.OwnAddress1 = 0;
 8000bc6:	4b0e      	ldr	r3, [pc, #56]	@ (8000c00 <MX_I2C1_Init+0x50>)
 8000bc8:	2200      	movs	r2, #0
 8000bca:	60da      	str	r2, [r3, #12]
  hi2c1.Init.AddressingMode = I2C_ADDRESSINGMODE_7BIT;
 8000bcc:	4b0c      	ldr	r3, [pc, #48]	@ (8000c00 <MX_I2C1_Init+0x50>)
 8000bce:	f44f 4280 	mov.w	r2, #16384	@ 0x4000
 8000bd2:	611a      	str	r2, [r3, #16]
  hi2c1.Init.DualAddressMode = I2C_DUALADDRESS_DISABLE;
 8000bd4:	4b0a      	ldr	r3, [pc, #40]	@ (8000c00 <MX_I2C1_Init+0x50>)
 8000bd6:	2200      	movs	r2, #0
 8000bd8:	615a      	str	r2, [r3, #20]
  hi2c1.Init.OwnAddress2 = 0;
 8000bda:	4b09      	ldr	r3, [pc, #36]	@ (8000c00 <MX_I2C1_Init+0x50>)
 8000bdc:	2200      	movs	r2, #0
 8000bde:	619a      	str	r2, [r3, #24]
  hi2c1.Init.GeneralCallMode = I2C_GENERALCALL_DISABLE;
 8000be0:	4b07      	ldr	r3, [pc, #28]	@ (8000c00 <MX_I2C1_Init+0x50>)
 8000be2:	2200      	movs	r2, #0
 8000be4:	61da      	str	r2, [r3, #28]
  hi2c1.Init.NoStretchMode = I2C_NOSTRETCH_DISABLE;
 8000be6:	4b06      	ldr	r3, [pc, #24]	@ (8000c00 <MX_I2C1_Init+0x50>)
 8000be8:	2200      	movs	r2, #0
 8000bea:	621a      	str	r2, [r3, #32]
  if (HAL_I2C_Init(&hi2c1) != HAL_OK)
 8000bec:	4804      	ldr	r0, [pc, #16]	@ (8000c00 <MX_I2C1_Init+0x50>)
 8000bee:	f001 f933 	bl	8001e58 <HAL_I2C_Init>
 8000bf2:	4603      	mov	r3, r0
 8000bf4:	2b00      	cmp	r3, #0
 8000bf6:	d001      	beq.n	8000bfc <MX_I2C1_Init+0x4c>
  {
    Error_Handler();
 8000bf8:	f000 f8b6 	bl	8000d68 <Error_Handler>
  }
  /* USER CODE BEGIN I2C1_Init 2 */

  /* USER CODE END I2C1_Init 2 */

}
 8000bfc:	bf00      	nop
 8000bfe:	bd80      	pop	{r7, pc}
 8000c00:	20000028 	.word	0x20000028
 8000c04:	40005400 	.word	0x40005400
 8000c08:	000186a0 	.word	0x000186a0

08000c0c <MX_I2S3_Init>:
  * @brief I2S3 Initialization Function
  * @param None
  * @retval None
  */
static void MX_I2S3_Init(void)
{
 8000c0c:	b580      	push	{r7, lr}
 8000c0e:	af00      	add	r7, sp, #0
  /* USER CODE END I2S3_Init 0 */

  /* USER CODE BEGIN I2S3_Init 1 */

  /* USER CODE END I2S3_Init 1 */
  hi2s3.Instance = SPI3;
 8000c10:	4b13      	ldr	r3, [pc, #76]	@ (8000c60 <MX_I2S3_Init+0x54>)
 8000c12:	4a14      	ldr	r2, [pc, #80]	@ (8000c64 <MX_I2S3_Init+0x58>)
 8000c14:	601a      	str	r2, [r3, #0]
  hi2s3.Init.Mode = I2S_MODE_MASTER_TX;
 8000c16:	4b12      	ldr	r3, [pc, #72]	@ (8000c60 <MX_I2S3_Init+0x54>)
 8000c18:	f44f 7200 	mov.w	r2, #512	@ 0x200
 8000c1c:	605a      	str	r2, [r3, #4]
  hi2s3.Init.Standard = I2S_STANDARD_PHILIPS;
 8000c1e:	4b10      	ldr	r3, [pc, #64]	@ (8000c60 <MX_I2S3_Init+0x54>)
 8000c20:	2200      	movs	r2, #0
 8000c22:	609a      	str	r2, [r3, #8]
  hi2s3.Init.DataFormat = I2S_DATAFORMAT_16B;
 8000c24:	4b0e      	ldr	r3, [pc, #56]	@ (8000c60 <MX_I2S3_Init+0x54>)
 8000c26:	2200      	movs	r2, #0
 8000c28:	60da      	str	r2, [r3, #12]
  hi2s3.Init.MCLKOutput = I2S_MCLKOUTPUT_ENABLE;
 8000c2a:	4b0d      	ldr	r3, [pc, #52]	@ (8000c60 <MX_I2S3_Init+0x54>)
 8000c2c:	f44f 7200 	mov.w	r2, #512	@ 0x200
 8000c30:	611a      	str	r2, [r3, #16]
  hi2s3.Init.AudioFreq = I2S_AUDIOFREQ_48K;
 8000c32:	4b0b      	ldr	r3, [pc, #44]	@ (8000c60 <MX_I2S3_Init+0x54>)
 8000c34:	f64b 3280 	movw	r2, #48000	@ 0xbb80
 8000c38:	615a      	str	r2, [r3, #20]
  hi2s3.Init.CPOL = I2S_CPOL_LOW;
 8000c3a:	4b09      	ldr	r3, [pc, #36]	@ (8000c60 <MX_I2S3_Init+0x54>)
 8000c3c:	2200      	movs	r2, #0
 8000c3e:	619a      	str	r2, [r3, #24]
  hi2s3.Init.ClockSource = I2S_CLOCK_PLL;
 8000c40:	4b07      	ldr	r3, [pc, #28]	@ (8000c60 <MX_I2S3_Init+0x54>)
 8000c42:	2200      	movs	r2, #0
 8000c44:	61da      	str	r2, [r3, #28]
  hi2s3.Init.FullDuplexMode = I2S_FULLDUPLEXMODE_DISABLE;
 8000c46:	4b06      	ldr	r3, [pc, #24]	@ (8000c60 <MX_I2S3_Init+0x54>)
 8000c48:	2200      	movs	r2, #0
 8000c4a:	621a      	str	r2, [r3, #32]
  if (HAL_I2S_Init(&hi2s3) != HAL_OK)
 8000c4c:	4804      	ldr	r0, [pc, #16]	@ (8000c60 <MX_I2S3_Init+0x54>)
 8000c4e:	f001 fda1 	bl	8002794 <HAL_I2S_Init>
 8000c52:	4603      	mov	r3, r0
 8000c54:	2b00      	cmp	r3, #0
 8000c56:	d001      	beq.n	8000c5c <MX_I2S3_Init+0x50>
  {
    Error_Handler();
 8000c58:	f000 f886 	bl	8000d68 <Error_Handler>
  }
  /* USER CODE BEGIN I2S3_Init 2 */

  /* USER CODE END I2S3_Init 2 */

}
 8000c5c:	bf00      	nop
 8000c5e:	bd80      	pop	{r7, pc}
 8000c60:	2000007c 	.word	0x2000007c
 8000c64:	40003c00 	.word	0x40003c00

08000c68 <MX_DMA_Init>:

/**
  * Enable DMA controller clock
  */
static void MX_DMA_Init(void)
{
 8000c68:	b580      	push	{r7, lr}
 8000c6a:	b082      	sub	sp, #8
 8000c6c:	af00      	add	r7, sp, #0

  /* DMA controller clock enable */
  __HAL_RCC_DMA1_CLK_ENABLE();
 8000c6e:	2300      	movs	r3, #0
 8000c70:	607b      	str	r3, [r7, #4]
 8000c72:	4b0c      	ldr	r3, [pc, #48]	@ (8000ca4 <MX_DMA_Init+0x3c>)
 8000c74:	6b1b      	ldr	r3, [r3, #48]	@ 0x30
 8000c76:	4a0b      	ldr	r2, [pc, #44]	@ (8000ca4 <MX_DMA_Init+0x3c>)
 8000c78:	f443 1300 	orr.w	r3, r3, #2097152	@ 0x200000
 8000c7c:	6313      	str	r3, [r2, #48]	@ 0x30
 8000c7e:	4b09      	ldr	r3, [pc, #36]	@ (8000ca4 <MX_DMA_Init+0x3c>)
 8000c80:	6b1b      	ldr	r3, [r3, #48]	@ 0x30
 8000c82:	f403 1300 	and.w	r3, r3, #2097152	@ 0x200000
 8000c86:	607b      	str	r3, [r7, #4]
 8000c88:	687b      	ldr	r3, [r7, #4]

  /* DMA interrupt init */
  /* DMA1_Stream5_IRQn interrupt configuration */
  HAL_NVIC_SetPriority(DMA1_Stream5_IRQn, 0, 0);
 8000c8a:	2200      	movs	r2, #0
 8000c8c:	2100      	movs	r1, #0
 8000c8e:	2010      	movs	r0, #16
 8000c90:	f000 fb85 	bl	800139e <HAL_NVIC_SetPriority>
  HAL_NVIC_EnableIRQ(DMA1_Stream5_IRQn);
 8000c94:	2010      	movs	r0, #16
 8000c96:	f000 fb9e 	bl	80013d6 <HAL_NVIC_EnableIRQ>

}
 8000c9a:	bf00      	nop
 8000c9c:	3708      	adds	r7, #8
 8000c9e:	46bd      	mov	sp, r7
 8000ca0:	bd80      	pop	{r7, pc}
 8000ca2:	bf00      	nop
 8000ca4:	40023800 	.word	0x40023800

08000ca8 <MX_GPIO_Init>:
  * @brief GPIO Initialization Function
  * @param None
  * @retval None
  */
static void MX_GPIO_Init(void)
{
 8000ca8:	b580      	push	{r7, lr}
 8000caa:	b08a      	sub	sp, #40	@ 0x28
 8000cac:	af00      	add	r7, sp, #0
  GPIO_InitTypeDef GPIO_InitStruct = {0};
 8000cae:	f107 0314 	add.w	r3, r7, #20
 8000cb2:	2200      	movs	r2, #0
 8000cb4:	601a      	str	r2, [r3, #0]
 8000cb6:	605a      	str	r2, [r3, #4]
 8000cb8:	609a      	str	r2, [r3, #8]
 8000cba:	60da      	str	r2, [r3, #12]
 8000cbc:	611a      	str	r2, [r3, #16]
/* USER CODE BEGIN MX_GPIO_Init_1 */
/* USER CODE END MX_GPIO_Init_1 */

  /* GPIO Ports Clock Enable */
  __HAL_RCC_GPIOA_CLK_ENABLE();
 8000cbe:	2300      	movs	r3, #0
 8000cc0:	613b      	str	r3, [r7, #16]
 8000cc2:	4b27      	ldr	r3, [pc, #156]	@ (8000d60 <MX_GPIO_Init+0xb8>)
 8000cc4:	6b1b      	ldr	r3, [r3, #48]	@ 0x30
 8000cc6:	4a26      	ldr	r2, [pc, #152]	@ (8000d60 <MX_GPIO_Init+0xb8>)
 8000cc8:	f043 0301 	orr.w	r3, r3, #1
 8000ccc:	6313      	str	r3, [r2, #48]	@ 0x30
 8000cce:	4b24      	ldr	r3, [pc, #144]	@ (8000d60 <MX_GPIO_Init+0xb8>)
 8000cd0:	6b1b      	ldr	r3, [r3, #48]	@ 0x30
 8000cd2:	f003 0301 	and.w	r3, r3, #1
 8000cd6:	613b      	str	r3, [r7, #16]
 8000cd8:	693b      	ldr	r3, [r7, #16]
  __HAL_RCC_GPIOD_CLK_ENABLE();
 8000cda:	2300      	movs	r3, #0
 8000cdc:	60fb      	str	r3, [r7, #12]
 8000cde:	4b20      	ldr	r3, [pc, #128]	@ (8000d60 <MX_GPIO_Init+0xb8>)
 8000ce0:	6b1b      	ldr	r3, [r3, #48]	@ 0x30
 8000ce2:	4a1f      	ldr	r2, [pc, #124]	@ (8000d60 <MX_GPIO_Init+0xb8>)
 8000ce4:	f043 0308 	orr.w	r3, r3, #8
 8000ce8:	6313      	str	r3, [r2, #48]	@ 0x30
 8000cea:	4b1d      	ldr	r3, [pc, #116]	@ (8000d60 <MX_GPIO_Init+0xb8>)
 8000cec:	6b1b      	ldr	r3, [r3, #48]	@ 0x30
 8000cee:	f003 0308 	and.w	r3, r3, #8
 8000cf2:	60fb      	str	r3, [r7, #12]
 8000cf4:	68fb      	ldr	r3, [r7, #12]
  __HAL_RCC_GPIOC_CLK_ENABLE();
 8000cf6:	2300      	movs	r3, #0
 8000cf8:	60bb      	str	r3, [r7, #8]
 8000cfa:	4b19      	ldr	r3, [pc, #100]	@ (8000d60 <MX_GPIO_Init+0xb8>)
 8000cfc:	6b1b      	ldr	r3, [r3, #48]	@ 0x30
 8000cfe:	4a18      	ldr	r2, [pc, #96]	@ (8000d60 <MX_GPIO_Init+0xb8>)
 8000d00:	f043 0304 	orr.w	r3, r3, #4
 8000d04:	6313      	str	r3, [r2, #48]	@ 0x30
 8000d06:	4b16      	ldr	r3, [pc, #88]	@ (8000d60 <MX_GPIO_Init+0xb8>)
 8000d08:	6b1b      	ldr	r3, [r3, #48]	@ 0x30
 8000d0a:	f003 0304 	and.w	r3, r3, #4
 8000d0e:	60bb      	str	r3, [r7, #8]
 8000d10:	68bb      	ldr	r3, [r7, #8]
  __HAL_RCC_GPIOB_CLK_ENABLE();
 8000d12:	2300      	movs	r3, #0
 8000d14:	607b      	str	r3, [r7, #4]
 8000d16:	4b12      	ldr	r3, [pc, #72]	@ (8000d60 <MX_GPIO_Init+0xb8>)
 8000d18:	6b1b      	ldr	r3, [r3, #48]	@ 0x30
 8000d1a:	4a11      	ldr	r2, [pc, #68]	@ (8000d60 <MX_GPIO_Init+0xb8>)
 8000d1c:	f043 0302 	orr.w	r3, r3, #2
 8000d20:	6313      	str	r3, [r2, #48]	@ 0x30
 8000d22:	4b0f      	ldr	r3, [pc, #60]	@ (8000d60 <MX_GPIO_Init+0xb8>)
 8000d24:	6b1b      	ldr	r3, [r3, #48]	@ 0x30
 8000d26:	f003 0302 	and.w	r3, r3, #2
 8000d2a:	607b      	str	r3, [r7, #4]
 8000d2c:	687b      	ldr	r3, [r7, #4]

  /*Configure GPIO pin Output Level */
  HAL_GPIO_WritePin(GPIOD, GPIO_PIN_12|GPIO_PIN_13|GPIO_PIN_14|GPIO_PIN_15
 8000d2e:	2200      	movs	r2, #0
 8000d30:	f24f 0110 	movw	r1, #61456	@ 0xf010
 8000d34:	480b      	ldr	r0, [pc, #44]	@ (8000d64 <MX_GPIO_Init+0xbc>)
 8000d36:	f001 f875 	bl	8001e24 <HAL_GPIO_WritePin>
                          |GPIO_PIN_4, GPIO_PIN_RESET);

  /*Configure GPIO pins : PD12 PD13 PD14 PD15
                           PD4 */
  GPIO_InitStruct.Pin = GPIO_PIN_12|GPIO_PIN_13|GPIO_PIN_14|GPIO_PIN_15
 8000d3a:	f24f 0310 	movw	r3, #61456	@ 0xf010
 8000d3e:	617b      	str	r3, [r7, #20]
                          |GPIO_PIN_4;
  GPIO_InitStruct.Mode = GPIO_MODE_OUTPUT_PP;
 8000d40:	2301      	movs	r3, #1
 8000d42:	61bb      	str	r3, [r7, #24]
  GPIO_InitStruct.Pull = GPIO_NOPULL;
 8000d44:	2300      	movs	r3, #0
 8000d46:	61fb      	str	r3, [r7, #28]
  GPIO_InitStruct.Speed = GPIO_SPEED_FREQ_LOW;
 8000d48:	2300      	movs	r3, #0
 8000d4a:	623b      	str	r3, [r7, #32]
  HAL_GPIO_Init(GPIOD, &GPIO_InitStruct);
 8000d4c:	f107 0314 	add.w	r3, r7, #20
 8000d50:	4619      	mov	r1, r3
 8000d52:	4804      	ldr	r0, [pc, #16]	@ (8000d64 <MX_GPIO_Init+0xbc>)
 8000d54:	f000 feca 	bl	8001aec <HAL_GPIO_Init>

/* USER CODE BEGIN MX_GPIO_Init_2 */
/* USER CODE END MX_GPIO_Init_2 */
}
 8000d58:	bf00      	nop
 8000d5a:	3728      	adds	r7, #40	@ 0x28
 8000d5c:	46bd      	mov	sp, r7
 8000d5e:	bd80      	pop	{r7, pc}
 8000d60:	40023800 	.word	0x40023800
 8000d64:	40020c00 	.word	0x40020c00

08000d68 <Error_Handler>:
/**
  * @brief  This function is executed in case of error occurrence.
  * @retval None
  */
void Error_Handler(void)
{
 8000d68:	b480      	push	{r7}
 8000d6a:	af00      	add	r7, sp, #0
  \details Disables IRQ interrupts by setting special-purpose register PRIMASK.
           Can only be executed in Privileged modes.
 */
__STATIC_FORCEINLINE void __disable_irq(void)
{
  __ASM volatile ("cpsid i" : : : "memory");
 8000d6c:	b672      	cpsid	i
}
 8000d6e:	bf00      	nop
  /* USER CODE BEGIN Error_Handler_Debug */
  /* User can add his own implementation to report the HAL error return state */
  __disable_irq();
  while (1)
 8000d70:	bf00      	nop
 8000d72:	e7fd      	b.n	8000d70 <Error_Handler+0x8>

08000d74 <HAL_MspInit>:
 8000d74:	b480      	push	{r7}
 8000d76:	b083      	sub	sp, #12
 8000d78:	af00      	add	r7, sp, #0
 8000d7a:	2300      	movs	r3, #0
 8000d7c:	607b      	str	r3, [r7, #4]
 8000d7e:	4b10      	ldr	r3, [pc, #64]	@ (8000dc0 <HAL_MspInit+0x4c>)
 8000d80:	6c5b      	ldr	r3, [r3, #68]	@ 0x44
 8000d82:	4a0f      	ldr	r2, [pc, #60]	@ (8000dc0 <HAL_MspInit+0x4c>)
 8000d84:	f443 4380 	orr.w	r3, r3, #16384	@ 0x4000
 8000d88:	6453      	str	r3, [r2, #68]	@ 0x44
 8000d8a:	4b0d      	ldr	r3, [pc, #52]	@ (8000dc0 <HAL_MspInit+0x4c>)
 8000d8c:	6c5b      	ldr	r3, [r3, #68]	@ 0x44
 8000d8e:	f403 4380 	and.w	r3, r3, #16384	@ 0x4000
 8000d92:	607b      	str	r3, [r7, #4]
 8000d94:	687b      	ldr	r3, [r7, #4]
 8000d96:	2300      	movs	r3, #0
 8000d98:	603b      	str	r3, [r7, #0]
 8000d9a:	4b09      	ldr	r3, [pc, #36]	@ (8000dc0 <HAL_MspInit+0x4c>)
 8000d9c:	6c1b      	ldr	r3, [r3, #64]	@ 0x40
 8000d9e:	4a08      	ldr	r2, [pc, #32]	@ (8000dc0 <HAL_MspInit+0x4c>)
 8000da0:	f043 5380 	orr.w	r3, r3, #268435456	@ 0x10000000
 8000da4:	6413      	str	r3, [r2, #64]	@ 0x40
 8000da6:	4b06      	ldr	r3, [pc, #24]	@ (8000dc0 <HAL_MspInit+0x4c>)
 8000da8:	6c1b      	ldr	r3, [r3, #64]	@ 0x40
 8000daa:	f003 5380 	and.w	r3, r3, #268435456	@ 0x10000000
 8000dae:	603b      	str	r3, [r7, #0]
 8000db0:	683b      	ldr	r3, [r7, #0]
 8000db2:	bf00      	nop
 8000db4:	370c      	adds	r7, #12
 8000db6:	46bd      	mov	sp, r7
 8000db8:	f85d 7b04 	ldr.w	r7, [sp], #4
 8000dbc:	4770      	bx	lr
 8000dbe:	bf00      	nop
 8000dc0:	40023800 	.word	0x40023800

08000dc4 <HAL_I2C_MspInit>:
 8000dc4:	b580      	push	{r7, lr}
 8000dc6:	b08a      	sub	sp, #40	@ 0x28
 8000dc8:	af00      	add	r7, sp, #0
 8000dca:	6078      	str	r0, [r7, #4]
 8000dcc:	f107 0314 	add.w	r3, r7, #20
 8000dd0:	2200      	movs	r2, #0
 8000dd2:	601a      	str	r2, [r3, #0]
 8000dd4:	605a      	str	r2, [r3, #4]
 8000dd6:	609a      	str	r2, [r3, #8]
 8000dd8:	60da      	str	r2, [r3, #12]
 8000dda:	611a      	str	r2, [r3, #16]
 8000ddc:	687b      	ldr	r3, [r7, #4]
 8000dde:	681b      	ldr	r3, [r3, #0]
 8000de0:	4a19      	ldr	r2, [pc, #100]	@ (8000e48 <HAL_I2C_MspInit+0x84>)
 8000de2:	4293      	cmp	r3, r2
 8000de4:	d12c      	bne.n	8000e40 <HAL_I2C_MspInit+0x7c>
 8000de6:	2300      	movs	r3, #0
 8000de8:	613b      	str	r3, [r7, #16]
 8000dea:	4b18      	ldr	r3, [pc, #96]	@ (8000e4c <HAL_I2C_MspInit+0x88>)
 8000dec:	6b1b      	ldr	r3, [r3, #48]	@ 0x30
 8000dee:	4a17      	ldr	r2, [pc, #92]	@ (8000e4c <HAL_I2C_MspInit+0x88>)
 8000df0:	f043 0302 	orr.w	r3, r3, #2
 8000df4:	6313      	str	r3, [r2, #48]	@ 0x30
 8000df6:	4b15      	ldr	r3, [pc, #84]	@ (8000e4c <HAL_I2C_MspInit+0x88>)
 8000df8:	6b1b      	ldr	r3, [r3, #48]	@ 0x30
 8000dfa:	f003 0302 	and.w	r3, r3, #2
 8000dfe:	613b      	str	r3, [r7, #16]
 8000e00:	693b      	ldr	r3, [r7, #16]
 8000e02:	f44f 7310 	mov.w	r3, #576	@ 0x240
 8000e06:	617b      	str	r3, [r7, #20]
 8000e08:	2312      	movs	r3, #18
 8000e0a:	61bb      	str	r3, [r7, #24]
 8000e0c:	2300      	movs	r3, #0
 8000e0e:	61fb      	str	r3, [r7, #28]
 8000e10:	2303      	movs	r3, #3
 8000e12:	623b      	str	r3, [r7, #32]
 8000e14:	2304      	movs	r3, #4
 8000e16:	627b      	str	r3, [r7, #36]	@ 0x24
 8000e18:	f107 0314 	add.w	r3, r7, #20
 8000e1c:	4619      	mov	r1, r3
 8000e1e:	480c      	ldr	r0, [pc, #48]	@ (8000e50 <HAL_I2C_MspInit+0x8c>)
 8000e20:	f000 fe64 	bl	8001aec <HAL_GPIO_Init>
 8000e24:	2300      	movs	r3, #0
 8000e26:	60fb      	str	r3, [r7, #12]
 8000e28:	4b08      	ldr	r3, [pc, #32]	@ (8000e4c <HAL_I2C_MspInit+0x88>)
 8000e2a:	6c1b      	ldr	r3, [r3, #64]	@ 0x40
 8000e2c:	4a07      	ldr	r2, [pc, #28]	@ (8000e4c <HAL_I2C_MspInit+0x88>)
 8000e2e:	f443 1300 	orr.w	r3, r3, #2097152	@ 0x200000
 8000e32:	6413      	str	r3, [r2, #64]	@ 0x40
 8000e34:	4b05      	ldr	r3, [pc, #20]	@ (8000e4c <HAL_I2C_MspInit+0x88>)
 8000e36:	6c1b      	ldr	r3, [r3, #64]	@ 0x40
 8000e38:	f403 1300 	and.w	r3, r3, #2097152	@ 0x200000
 8000e3c:	60fb      	str	r3, [r7, #12]
 8000e3e:	68fb      	ldr	r3, [r7, #12]
 8000e40:	bf00      	nop
 8000e42:	3728      	adds	r7, #40	@ 0x28
 8000e44:	46bd      	mov	sp, r7
 8000e46:	bd80      	pop	{r7, pc}
 8000e48:	40005400 	.word	0x40005400
 8000e4c:	40023800 	.word	0x40023800
 8000e50:	40020400 	.word	0x40020400

08000e54 <HAL_I2S_MspInit>:
 8000e54:	b580      	push	{r7, lr}
 8000e56:	b08e      	sub	sp, #56	@ 0x38
 8000e58:	af00      	add	r7, sp, #0
 8000e5a:	6078      	str	r0, [r7, #4]
 8000e5c:	f107 0324 	add.w	r3, r7, #36	@ 0x24
 8000e60:	2200      	movs	r2, #0
 8000e62:	601a      	str	r2, [r3, #0]
 8000e64:	605a      	str	r2, [r3, #4]
 8000e66:	609a      	str	r2, [r3, #8]
 8000e68:	60da      	str	r2, [r3, #12]
 8000e6a:	611a      	str	r2, [r3, #16]
 8000e6c:	f107 0314 	add.w	r3, r7, #20
 8000e70:	2200      	movs	r2, #0
 8000e72:	601a      	str	r2, [r3, #0]
 8000e74:	605a      	str	r2, [r3, #4]
 8000e76:	609a      	str	r2, [r3, #8]
 8000e78:	60da      	str	r2, [r3, #12]
 8000e7a:	687b      	ldr	r3, [r7, #4]
 8000e7c:	681b      	ldr	r3, [r3, #0]
 8000e7e:	4a4e      	ldr	r2, [pc, #312]	@ (8000fb8 <HAL_I2S_MspInit+0x164>)
 8000e80:	4293      	cmp	r3, r2
 8000e82:	f040 8094 	bne.w	8000fae <HAL_I2S_MspInit+0x15a>
 8000e86:	2301      	movs	r3, #1
 8000e88:	617b      	str	r3, [r7, #20]
 8000e8a:	23c0      	movs	r3, #192	@ 0xc0
 8000e8c:	61bb      	str	r3, [r7, #24]
 8000e8e:	2302      	movs	r3, #2
 8000e90:	61fb      	str	r3, [r7, #28]
 8000e92:	f107 0314 	add.w	r3, r7, #20
 8000e96:	4618      	mov	r0, r3
 8000e98:	f002 fe66 	bl	8003b68 <HAL_RCCEx_PeriphCLKConfig>
 8000e9c:	4603      	mov	r3, r0
 8000e9e:	2b00      	cmp	r3, #0
 8000ea0:	d001      	beq.n	8000ea6 <HAL_I2S_MspInit+0x52>
 8000ea2:	f7ff ff61 	bl	8000d68 <Error_Handler>
 8000ea6:	2300      	movs	r3, #0
 8000ea8:	613b      	str	r3, [r7, #16]
 8000eaa:	4b44      	ldr	r3, [pc, #272]	@ (8000fbc <HAL_I2S_MspInit+0x168>)
 8000eac:	6c1b      	ldr	r3, [r3, #64]	@ 0x40
 8000eae:	4a43      	ldr	r2, [pc, #268]	@ (8000fbc <HAL_I2S_MspInit+0x168>)
 8000eb0:	f443 4300 	orr.w	r3, r3, #32768	@ 0x8000
 8000eb4:	6413      	str	r3, [r2, #64]	@ 0x40
 8000eb6:	4b41      	ldr	r3, [pc, #260]	@ (8000fbc <HAL_I2S_MspInit+0x168>)
 8000eb8:	6c1b      	ldr	r3, [r3, #64]	@ 0x40
 8000eba:	f403 4300 	and.w	r3, r3, #32768	@ 0x8000
 8000ebe:	613b      	str	r3, [r7, #16]
 8000ec0:	693b      	ldr	r3, [r7, #16]
 8000ec2:	2300      	movs	r3, #0
 8000ec4:	60fb      	str	r3, [r7, #12]
 8000ec6:	4b3d      	ldr	r3, [pc, #244]	@ (8000fbc <HAL_I2S_MspInit+0x168>)
 8000ec8:	6b1b      	ldr	r3, [r3, #48]	@ 0x30
 8000eca:	4a3c      	ldr	r2, [pc, #240]	@ (8000fbc <HAL_I2S_MspInit+0x168>)
 8000ecc:	f043 0301 	orr.w	r3, r3, #1
 8000ed0:	6313      	str	r3, [r2, #48]	@ 0x30
 8000ed2:	4b3a      	ldr	r3, [pc, #232]	@ (8000fbc <HAL_I2S_MspInit+0x168>)
 8000ed4:	6b1b      	ldr	r3, [r3, #48]	@ 0x30
 8000ed6:	f003 0301 	and.w	r3, r3, #1
 8000eda:	60fb      	str	r3, [r7, #12]
 8000edc:	68fb      	ldr	r3, [r7, #12]
 8000ede:	2300      	movs	r3, #0
 8000ee0:	60bb      	str	r3, [r7, #8]
 8000ee2:	4b36      	ldr	r3, [pc, #216]	@ (8000fbc <HAL_I2S_MspInit+0x168>)
 8000ee4:	6b1b      	ldr	r3, [r3, #48]	@ 0x30
 8000ee6:	4a35      	ldr	r2, [pc, #212]	@ (8000fbc <HAL_I2S_MspInit+0x168>)
 8000ee8:	f043 0304 	orr.w	r3, r3, #4
 8000eec:	6313      	str	r3, [r2, #48]	@ 0x30
 8000eee:	4b33      	ldr	r3, [pc, #204]	@ (8000fbc <HAL_I2S_MspInit+0x168>)
 8000ef0:	6b1b      	ldr	r3, [r3, #48]	@ 0x30
 8000ef2:	f003 0304 	and.w	r3, r3, #4
 8000ef6:	60bb      	str	r3, [r7, #8]
 8000ef8:	68bb      	ldr	r3, [r7, #8]
 8000efa:	2310      	movs	r3, #16
 8000efc:	627b      	str	r3, [r7, #36]	@ 0x24
 8000efe:	2302      	movs	r3, #2
 8000f00:	62bb      	str	r3, [r7, #40]	@ 0x28
 8000f02:	2300      	movs	r3, #0
 8000f04:	62fb      	str	r3, [r7, #44]	@ 0x2c
 8000f06:	2300      	movs	r3, #0
 8000f08:	633b      	str	r3, [r7, #48]	@ 0x30
 8000f0a:	2306      	movs	r3, #6
 8000f0c:	637b      	str	r3, [r7, #52]	@ 0x34
 8000f0e:	f107 0324 	add.w	r3, r7, #36	@ 0x24
 8000f12:	4619      	mov	r1, r3
 8000f14:	482a      	ldr	r0, [pc, #168]	@ (8000fc0 <HAL_I2S_MspInit+0x16c>)
 8000f16:	f000 fde9 	bl	8001aec <HAL_GPIO_Init>
 8000f1a:	f44f 53a4 	mov.w	r3, #5248	@ 0x1480
 8000f1e:	627b      	str	r3, [r7, #36]	@ 0x24
 8000f20:	2302      	movs	r3, #2
 8000f22:	62bb      	str	r3, [r7, #40]	@ 0x28
 8000f24:	2300      	movs	r3, #0
 8000f26:	62fb      	str	r3, [r7, #44]	@ 0x2c
 8000f28:	2300      	movs	r3, #0
 8000f2a:	633b      	str	r3, [r7, #48]	@ 0x30
 8000f2c:	2306      	movs	r3, #6
 8000f2e:	637b      	str	r3, [r7, #52]	@ 0x34
 8000f30:	f107 0324 	add.w	r3, r7, #36	@ 0x24
 8000f34:	4619      	mov	r1, r3
 8000f36:	4823      	ldr	r0, [pc, #140]	@ (8000fc4 <HAL_I2S_MspInit+0x170>)
 8000f38:	f000 fdd8 	bl	8001aec <HAL_GPIO_Init>
 8000f3c:	4b22      	ldr	r3, [pc, #136]	@ (8000fc8 <HAL_I2S_MspInit+0x174>)
 8000f3e:	4a23      	ldr	r2, [pc, #140]	@ (8000fcc <HAL_I2S_MspInit+0x178>)
 8000f40:	601a      	str	r2, [r3, #0]
 8000f42:	4b21      	ldr	r3, [pc, #132]	@ (8000fc8 <HAL_I2S_MspInit+0x174>)
 8000f44:	2200      	movs	r2, #0
 8000f46:	605a      	str	r2, [r3, #4]
 8000f48:	4b1f      	ldr	r3, [pc, #124]	@ (8000fc8 <HAL_I2S_MspInit+0x174>)
 8000f4a:	2240      	movs	r2, #64	@ 0x40
 8000f4c:	609a      	str	r2, [r3, #8]
 8000f4e:	4b1e      	ldr	r3, [pc, #120]	@ (8000fc8 <HAL_I2S_MspInit+0x174>)
 8000f50:	2200      	movs	r2, #0
 8000f52:	60da      	str	r2, [r3, #12]
 8000f54:	4b1c      	ldr	r3, [pc, #112]	@ (8000fc8 <HAL_I2S_MspInit+0x174>)
 8000f56:	f44f 6280 	mov.w	r2, #1024	@ 0x400
 8000f5a:	611a      	str	r2, [r3, #16]
 8000f5c:	4b1a      	ldr	r3, [pc, #104]	@ (8000fc8 <HAL_I2S_MspInit+0x174>)
 8000f5e:	f44f 6200 	mov.w	r2, #2048	@ 0x800
 8000f62:	615a      	str	r2, [r3, #20]
 8000f64:	4b18      	ldr	r3, [pc, #96]	@ (8000fc8 <HAL_I2S_MspInit+0x174>)
 8000f66:	f44f 5200 	mov.w	r2, #8192	@ 0x2000
 8000f6a:	619a      	str	r2, [r3, #24]
 8000f6c:	4b16      	ldr	r3, [pc, #88]	@ (8000fc8 <HAL_I2S_MspInit+0x174>)
 8000f6e:	f44f 7280 	mov.w	r2, #256	@ 0x100
 8000f72:	61da      	str	r2, [r3, #28]
 8000f74:	4b14      	ldr	r3, [pc, #80]	@ (8000fc8 <HAL_I2S_MspInit+0x174>)
 8000f76:	2200      	movs	r2, #0
 8000f78:	621a      	str	r2, [r3, #32]
 8000f7a:	4b13      	ldr	r3, [pc, #76]	@ (8000fc8 <HAL_I2S_MspInit+0x174>)
 8000f7c:	2204      	movs	r2, #4
 8000f7e:	625a      	str	r2, [r3, #36]	@ 0x24
 8000f80:	4b11      	ldr	r3, [pc, #68]	@ (8000fc8 <HAL_I2S_MspInit+0x174>)
 8000f82:	2203      	movs	r2, #3
 8000f84:	629a      	str	r2, [r3, #40]	@ 0x28
 8000f86:	4b10      	ldr	r3, [pc, #64]	@ (8000fc8 <HAL_I2S_MspInit+0x174>)
 8000f88:	2200      	movs	r2, #0
 8000f8a:	62da      	str	r2, [r3, #44]	@ 0x2c
 8000f8c:	4b0e      	ldr	r3, [pc, #56]	@ (8000fc8 <HAL_I2S_MspInit+0x174>)
 8000f8e:	2200      	movs	r2, #0
 8000f90:	631a      	str	r2, [r3, #48]	@ 0x30
 8000f92:	480d      	ldr	r0, [pc, #52]	@ (8000fc8 <HAL_I2S_MspInit+0x174>)
 8000f94:	f000 fa3a 	bl	800140c <HAL_DMA_Init>
 8000f98:	4603      	mov	r3, r0
 8000f9a:	2b00      	cmp	r3, #0
 8000f9c:	d001      	beq.n	8000fa2 <HAL_I2S_MspInit+0x14e>
 8000f9e:	f7ff fee3 	bl	8000d68 <Error_Handler>
 8000fa2:	687b      	ldr	r3, [r7, #4]
 8000fa4:	4a08      	ldr	r2, [pc, #32]	@ (8000fc8 <HAL_I2S_MspInit+0x174>)
 8000fa6:	639a      	str	r2, [r3, #56]	@ 0x38
 8000fa8:	4a07      	ldr	r2, [pc, #28]	@ (8000fc8 <HAL_I2S_MspInit+0x174>)
 8000faa:	687b      	ldr	r3, [r7, #4]
 8000fac:	6393      	str	r3, [r2, #56]	@ 0x38
 8000fae:	bf00      	nop
 8000fb0:	3738      	adds	r7, #56	@ 0x38
 8000fb2:	46bd      	mov	sp, r7
 8000fb4:	bd80      	pop	{r7, pc}
 8000fb6:	bf00      	nop
 8000fb8:	40003c00 	.word	0x40003c00
 8000fbc:	40023800 	.word	0x40023800
 8000fc0:	40020000 	.word	0x40020000
 8000fc4:	40020800 	.word	0x40020800
 8000fc8:	200000c4 	.word	0x200000c4
 8000fcc:	40026088 	.word	0x40026088

08000fd0 <NMI_Handler>:
 8000fd0:	b480      	push	{r7}
 8000fd2:	af00      	add	r7, sp, #0
 8000fd4:	bf00      	nop
 8000fd6:	e7fd      	b.n	8000fd4 <NMI_Handler+0x4>

08000fd8 <HardFault_Handler>:
 8000fd8:	b480      	push	{r7}
 8000fda:	af00      	add	r7, sp, #0
 8000fdc:	bf00      	nop
 8000fde:	e7fd      	b.n	8000fdc <HardFault_Handler+0x4>

08000fe0 <MemManage_Handler>:
 8000fe0:	b480      	push	{r7}
 8000fe2:	af00      	add	r7, sp, #0
 8000fe4:	bf00      	nop
 8000fe6:	e7fd      	b.n	8000fe4 <MemManage_Handler+0x4>

08000fe8 <BusFault_Handler>:
 8000fe8:	b480      	push	{r7}
 8000fea:	af00      	add	r7, sp, #0
 8000fec:	bf00      	nop
 8000fee:	e7fd      	b.n	8000fec <BusFault_Handler+0x4>

08000ff0 <UsageFault_Handler>:
 8000ff0:	b480      	push	{r7}
 8000ff2:	af00      	add	r7, sp, #0
 8000ff4:	bf00      	nop
 8000ff6:	e7fd      	b.n	8000ff4 <UsageFault_Handler+0x4>

08000ff8 <SVC_Handler>:
 8000ff8:	b480      	push	{r7}
 8000ffa:	af00      	add	r7, sp, #0
 8000ffc:	bf00      	nop
 8000ffe:	46bd      	mov	sp, r7
 8001000:	f85d 7b04 	ldr.w	r7, [sp], #4
 8001004:	4770      	bx	lr

08001006 <DebugMon_Handler>:
 8001006:	b480      	push	{r7}
 8001008:	af00      	add	r7, sp, #0
 800100a:	bf00      	nop
 800100c:	46bd      	mov	sp, r7
 800100e:	f85d 7b04 	ldr.w	r7, [sp], #4
 8001012:	4770      	bx	lr

08001014 <PendSV_Handler>:
 8001014:	b480      	push	{r7}
 8001016:	af00      	add	r7, sp, #0
 8001018:	bf00      	nop
 800101a:	46bd      	mov	sp, r7
 800101c:	f85d 7b04 	ldr.w	r7, [sp], #4
 8001020:	4770      	bx	lr

08001022 <SysTick_Handler>:
 8001022:	b580      	push	{r7, lr}
 8001024:	af00      	add	r7, sp, #0
 8001026:	f000 f89b 	bl	8001160 <HAL_IncTick>
 800102a:	bf00      	nop
 800102c:	bd80      	pop	{r7, pc}
	...

08001030 <DMA1_Stream5_IRQHandler>:
 8001030:	b580      	push	{r7, lr}
 8001032:	af00      	add	r7, sp, #0
 8001034:	4802      	ldr	r0, [pc, #8]	@ (8001040 <DMA1_Stream5_IRQHandler+0x10>)
 8001036:	f000 faef 	bl	8001618 <HAL_DMA_IRQHandler>
 800103a:	bf00      	nop
 800103c:	bd80      	pop	{r7, pc}
 800103e:	bf00      	nop
 8001040:	200000c4 	.word	0x200000c4

08001044 <SystemInit>:
 8001044:	b480      	push	{r7}
 8001046:	af00      	add	r7, sp, #0
 8001048:	4b06      	ldr	r3, [pc, #24]	@ (8001064 <SystemInit+0x20>)
 800104a:	f8d3 3088 	ldr.w	r3, [r3, #136]	@ 0x88
 800104e:	4a05      	ldr	r2, [pc, #20]	@ (8001064 <SystemInit+0x20>)
 8001050:	f443 0370 	orr.w	r3, r3, #15728640	@ 0xf00000
 8001054:	f8c2 3088 	str.w	r3, [r2, #136]	@ 0x88
 8001058:	bf00      	nop
 800105a:	46bd      	mov	sp, r7
 800105c:	f85d 7b04 	ldr.w	r7, [sp], #4
 8001060:	4770      	bx	lr
 8001062:	bf00      	nop
 8001064:	e000ed00 	.word	0xe000ed00

08001068 <Reset_Handler>:
 8001068:	f8df d034 	ldr.w	sp, [pc, #52]	@ 80010a0 <LoopFillZerobss+0xe>
 800106c:	f7ff ffea 	bl	8001044 <SystemInit>
 8001070:	480c      	ldr	r0, [pc, #48]	@ (80010a4 <LoopFillZerobss+0x12>)
 8001072:	490d      	ldr	r1, [pc, #52]	@ (80010a8 <LoopFillZerobss+0x16>)
 8001074:	4a0d      	ldr	r2, [pc, #52]	@ (80010ac <LoopFillZerobss+0x1a>)
 8001076:	2300      	movs	r3, #0
 8001078:	e002      	b.n	8001080 <LoopCopyDataInit>

0800107a <CopyDataInit>:
 800107a:	58d4      	ldr	r4, [r2, r3]
 800107c:	50c4      	str	r4, [r0, r3]
 800107e:	3304      	adds	r3, #4

08001080 <LoopCopyDataInit>:
 8001080:	18c4      	adds	r4, r0, r3
 8001082:	428c      	cmp	r4, r1
 8001084:	d3f9      	bcc.n	800107a <CopyDataInit>
 8001086:	4a0a      	ldr	r2, [pc, #40]	@ (80010b0 <LoopFillZerobss+0x1e>)
 8001088:	4c0a      	ldr	r4, [pc, #40]	@ (80010b4 <LoopFillZerobss+0x22>)
 800108a:	2300      	movs	r3, #0
 800108c:	e001      	b.n	8001092 <LoopFillZerobss>

0800108e <FillZerobss>:
 800108e:	6013      	str	r3, [r2, #0]
 8001090:	3204      	adds	r2, #4

08001092 <LoopFillZerobss>:
 8001092:	42a2      	cmp	r2, r4
 8001094:	d3fb      	bcc.n	800108e <FillZerobss>
 8001096:	f002 feb1 	bl	8003dfc <__libc_init_array>
 800109a:	f7ff fb79 	bl	8000790 <main>
 800109e:	4770      	bx	lr
 80010a0:	20020000 	.word	0x20020000
 80010a4:	20000000 	.word	0x20000000
 80010a8:	2000000c 	.word	0x2000000c
 80010ac:	08003e8c 	.word	0x08003e8c
 80010b0:	2000000c 	.word	0x2000000c
 80010b4:	200001f0 	.word	0x200001f0

080010b8 <ADC_IRQHandler>:
 80010b8:	e7fe      	b.n	80010b8 <ADC_IRQHandler>
	...

080010bc <HAL_Init>:
 80010bc:	b580      	push	{r7, lr}
 80010be:	af00      	add	r7, sp, #0
 80010c0:	4b0e      	ldr	r3, [pc, #56]	@ (80010fc <HAL_Init+0x40>)
 80010c2:	681b      	ldr	r3, [r3, #0]
 80010c4:	4a0d      	ldr	r2, [pc, #52]	@ (80010fc <HAL_Init+0x40>)
 80010c6:	f443 7300 	orr.w	r3, r3, #512	@ 0x200
 80010ca:	6013      	str	r3, [r2, #0]
 80010cc:	4b0b      	ldr	r3, [pc, #44]	@ (80010fc <HAL_Init+0x40>)
 80010ce:	681b      	ldr	r3, [r3, #0]
 80010d0:	4a0a      	ldr	r2, [pc, #40]	@ (80010fc <HAL_Init+0x40>)
 80010d2:	f443 6380 	orr.w	r3, r3, #1024	@ 0x400
 80010d6:	6013      	str	r3, [r2, #0]
 80010d8:	4b08      	ldr	r3, [pc, #32]	@ (80010fc <HAL_Init+0x40>)
 80010da:	681b      	ldr	r3, [r3, #0]
 80010dc:	4a07      	ldr	r2, [pc, #28]	@ (80010fc <HAL_Init+0x40>)
 80010de:	f443 7380 	orr.w	r3, r3, #256	@ 0x100
 80010e2:	6013      	str	r3, [r2, #0]
 80010e4:	2003      	movs	r0, #3
 80010e6:	f000 f94f 	bl	8001388 <HAL_NVIC_SetPriorityGrouping>
 80010ea:	200f      	movs	r0, #15
 80010ec:	f000 f808 	bl	8001100 <HAL_InitTick>
 80010f0:	f7ff fe40 	bl	8000d74 <HAL_MspInit>
 80010f4:	2300      	movs	r3, #0
 80010f6:	4618      	mov	r0, r3
 80010f8:	bd80      	pop	{r7, pc}
 80010fa:	bf00      	nop
 80010fc:	40023c00 	.word	0x40023c00

08001100 <HAL_InitTick>:
 8001100:	b580      	push	{r7, lr}
 8001102:	b082      	sub	sp, #8
 8001104:	af00      	add	r7, sp, #0
 8001106:	6078      	str	r0, [r7, #4]
 8001108:	4b12      	ldr	r3, [pc, #72]	@ (8001154 <HAL_InitTick+0x54>)
 800110a:	681a      	ldr	r2, [r3, #0]
 800110c:	4b12      	ldr	r3, [pc, #72]	@ (8001158 <HAL_InitTick+0x58>)
 800110e:	781b      	ldrb	r3, [r3, #0]
 8001110:	4619      	mov	r1, r3
 8001112:	f44f 737a 	mov.w	r3, #1000	@ 0x3e8
 8001116:	fbb3 f3f1 	udiv	r3, r3, r1
 800111a:	fbb2 f3f3 	udiv	r3, r2, r3
 800111e:	4618      	mov	r0, r3
 8001120:	f000 f967 	bl	80013f2 <HAL_SYSTICK_Config>
 8001124:	4603      	mov	r3, r0
 8001126:	2b00      	cmp	r3, #0
 8001128:	d001      	beq.n	800112e <HAL_InitTick+0x2e>
 800112a:	2301      	movs	r3, #1
 800112c:	e00e      	b.n	800114c <HAL_InitTick+0x4c>
 800112e:	687b      	ldr	r3, [r7, #4]
 8001130:	2b0f      	cmp	r3, #15
 8001132:	d80a      	bhi.n	800114a <HAL_InitTick+0x4a>
 8001134:	2200      	movs	r2, #0
 8001136:	6879      	ldr	r1, [r7, #4]
 8001138:	f04f 30ff 	mov.w	r0, #4294967295
 800113c:	f000 f92f 	bl	800139e <HAL_NVIC_SetPriority>
 8001140:	4a06      	ldr	r2, [pc, #24]	@ (800115c <HAL_InitTick+0x5c>)
 8001142:	687b      	ldr	r3, [r7, #4]
 8001144:	6013      	str	r3, [r2, #0]
 8001146:	2300      	movs	r3, #0
 8001148:	e000      	b.n	800114c <HAL_InitTick+0x4c>
 800114a:	2301      	movs	r3, #1
 800114c:	4618      	mov	r0, r3
 800114e:	3708      	adds	r7, #8
 8001150:	46bd      	mov	sp, r7
 8001152:	bd80      	pop	{r7, pc}
 8001154:	20000000 	.word	0x20000000
 8001158:	20000008 	.word	0x20000008
 800115c:	20000004 	.word	0x20000004

08001160 <HAL_IncTick>:
 8001160:	b480      	push	{r7}
 8001162:	af00      	add	r7, sp, #0
 8001164:	4b06      	ldr	r3, [pc, #24]	@ (8001180 <HAL_IncTick+0x20>)
 8001166:	781b      	ldrb	r3, [r3, #0]
 8001168:	461a      	mov	r2, r3
 800116a:	4b06      	ldr	r3, [pc, #24]	@ (8001184 <HAL_IncTick+0x24>)
 800116c:	681b      	ldr	r3, [r3, #0]
 800116e:	4413      	add	r3, r2
 8001170:	4a04      	ldr	r2, [pc, #16]	@ (8001184 <HAL_IncTick+0x24>)
 8001172:	6013      	str	r3, [r2, #0]
 8001174:	bf00      	nop
 8001176:	46bd      	mov	sp, r7
 8001178:	f85d 7b04 	ldr.w	r7, [sp], #4
 800117c:	4770      	bx	lr
 800117e:	bf00      	nop
 8001180:	20000008 	.word	0x20000008
 8001184:	200001ec 	.word	0x200001ec

08001188 <HAL_GetTick>:
 8001188:	b480      	push	{r7}
 800118a:	af00      	add	r7, sp, #0
 800118c:	4b03      	ldr	r3, [pc, #12]	@ (800119c <HAL_GetTick+0x14>)
 800118e:	681b      	ldr	r3, [r3, #0]
 8001190:	4618      	mov	r0, r3
 8001192:	46bd      	mov	sp, r7
 8001194:	f85d 7b04 	ldr.w	r7, [sp], #4
 8001198:	4770      	bx	lr
 800119a:	bf00      	nop
 800119c:	200001ec 	.word	0x200001ec

080011a0 <HAL_Delay>:
 80011a0:	b580      	push	{r7, lr}
 80011a2:	b084      	sub	sp, #16
 80011a4:	af00      	add	r7, sp, #0
 80011a6:	6078      	str	r0, [r7, #4]
 80011a8:	f7ff ffee 	bl	8001188 <HAL_GetTick>
 80011ac:	60b8      	str	r0, [r7, #8]
 80011ae:	687b      	ldr	r3, [r7, #4]
 80011b0:	60fb      	str	r3, [r7, #12]
 80011b2:	68fb      	ldr	r3, [r7, #12]
 80011b4:	f1b3 3fff 	cmp.w	r3, #4294967295
 80011b8:	d005      	beq.n	80011c6 <HAL_Delay+0x26>
 80011ba:	4b0a      	ldr	r3, [pc, #40]	@ (80011e4 <HAL_Delay+0x44>)
 80011bc:	781b      	ldrb	r3, [r3, #0]
 80011be:	461a      	mov	r2, r3
 80011c0:	68fb      	ldr	r3, [r7, #12]
 80011c2:	4413      	add	r3, r2
 80011c4:	60fb      	str	r3, [r7, #12]
 80011c6:	bf00      	nop
 80011c8:	f7ff ffde 	bl	8001188 <HAL_GetTick>
 80011cc:	4602      	mov	r2, r0
 80011ce:	68bb      	ldr	r3, [r7, #8]
 80011d0:	1ad3      	subs	r3, r2, r3
 80011d2:	68fa      	ldr	r2, [r7, #12]
 80011d4:	429a      	cmp	r2, r3
 80011d6:	d8f7      	bhi.n	80011c8 <HAL_Delay+0x28>
 80011d8:	bf00      	nop
 80011da:	bf00      	nop
 80011dc:	3710      	adds	r7, #16
 80011de:	46bd      	mov	sp, r7
 80011e0:	bd80      	pop	{r7, pc}
 80011e2:	bf00      	nop
 80011e4:	20000008 	.word	0x20000008

080011e8 <__NVIC_SetPriorityGrouping>:
 80011e8:	b480      	push	{r7}
 80011ea:	b085      	sub	sp, #20
 80011ec:	af00      	add	r7, sp, #0
 80011ee:	6078      	str	r0, [r7, #4]
 80011f0:	687b      	ldr	r3, [r7, #4]
 80011f2:	f003 0307 	and.w	r3, r3, #7
 80011f6:	60fb      	str	r3, [r7, #12]
 80011f8:	4b0c      	ldr	r3, [pc, #48]	@ (800122c <__NVIC_SetPriorityGrouping+0x44>)
 80011fa:	68db      	ldr	r3, [r3, #12]
 80011fc:	60bb      	str	r3, [r7, #8]
 80011fe:	68ba      	ldr	r2, [r7, #8]
 8001200:	f64f 03ff 	movw	r3, #63743	@ 0xf8ff
 8001204:	4013      	ands	r3, r2
 8001206:	60bb      	str	r3, [r7, #8]
 8001208:	68fb      	ldr	r3, [r7, #12]
 800120a:	021a      	lsls	r2, r3, #8
 800120c:	68bb      	ldr	r3, [r7, #8]
 800120e:	4313      	orrs	r3, r2
 8001210:	f043 63bf 	orr.w	r3, r3, #100139008	@ 0x5f80000
 8001214:	f443 3300 	orr.w	r3, r3, #131072	@ 0x20000
 8001218:	60bb      	str	r3, [r7, #8]
 800121a:	4a04      	ldr	r2, [pc, #16]	@ (800122c <__NVIC_SetPriorityGrouping+0x44>)
 800121c:	68bb      	ldr	r3, [r7, #8]
 800121e:	60d3      	str	r3, [r2, #12]
 8001220:	bf00      	nop
 8001222:	3714      	adds	r7, #20
 8001224:	46bd      	mov	sp, r7
 8001226:	f85d 7b04 	ldr.w	r7, [sp], #4
 800122a:	4770      	bx	lr
 800122c:	e000ed00 	.word	0xe000ed00

08001230 <__NVIC_GetPriorityGrouping>:
 8001230:	b480      	push	{r7}
 8001232:	af00      	add	r7, sp, #0
 8001234:	4b04      	ldr	r3, [pc, #16]	@ (8001248 <__NVIC_GetPriorityGrouping+0x18>)
 8001236:	68db      	ldr	r3, [r3, #12]
 8001238:	0a1b      	lsrs	r3, r3, #8
 800123a:	f003 0307 	and.w	r3, r3, #7
 800123e:	4618      	mov	r0, r3
 8001240:	46bd      	mov	sp, r7
 8001242:	f85d 7b04 	ldr.w	r7, [sp], #4
 8001246:	4770      	bx	lr
 8001248:	e000ed00 	.word	0xe000ed00

0800124c <__NVIC_EnableIRQ>:
 800124c:	b480      	push	{r7}
 800124e:	b083      	sub	sp, #12
 8001250:	af00      	add	r7, sp, #0
 8001252:	4603      	mov	r3, r0
 8001254:	71fb      	strb	r3, [r7, #7]
 8001256:	f997 3007 	ldrsb.w	r3, [r7, #7]
 800125a:	2b00      	cmp	r3, #0
 800125c:	db0b      	blt.n	8001276 <__NVIC_EnableIRQ+0x2a>
 800125e:	79fb      	ldrb	r3, [r7, #7]
 8001260:	f003 021f 	and.w	r2, r3, #31
 8001264:	4907      	ldr	r1, [pc, #28]	@ (8001284 <__NVIC_EnableIRQ+0x38>)
 8001266:	f997 3007 	ldrsb.w	r3, [r7, #7]
 800126a:	095b      	lsrs	r3, r3, #5
 800126c:	2001      	movs	r0, #1
 800126e:	fa00 f202 	lsl.w	r2, r0, r2
 8001272:	f841 2023 	str.w	r2, [r1, r3, lsl #2]
 8001276:	bf00      	nop
 8001278:	370c      	adds	r7, #12
 800127a:	46bd      	mov	sp, r7
 800127c:	f85d 7b04 	ldr.w	r7, [sp], #4
 8001280:	4770      	bx	lr
 8001282:	bf00      	nop
 8001284:	e000e100 	.word	0xe000e100

08001288 <__NVIC_SetPriority>:
 8001288:	b480      	push	{r7}
 800128a:	b083      	sub	sp, #12
 800128c:	af00      	add	r7, sp, #0
 800128e:	4603      	mov	r3, r0
 8001290:	6039      	str	r1, [r7, #0]
 8001292:	71fb      	strb	r3, [r7, #7]
 8001294:	f997 3007 	ldrsb.w	r3, [r7, #7]
 8001298:	2b00      	cmp	r3, #0
 800129a:	db0a      	blt.n	80012b2 <__NVIC_SetPriority+0x2a>
 800129c:	683b      	ldr	r3, [r7, #0]
 800129e:	b2da      	uxtb	r2, r3
 80012a0:	490c      	ldr	r1, [pc, #48]	@ (80012d4 <__NVIC_SetPriority+0x4c>)
 80012a2:	f997 3007 	ldrsb.w	r3, [r7, #7]
 80012a6:	0112      	lsls	r2, r2, #4
 80012a8:	b2d2      	uxtb	r2, r2
 80012aa:	440b      	add	r3, r1
 80012ac:	f883 2300 	strb.w	r2, [r3, #768]	@ 0x300
 80012b0:	e00a      	b.n	80012c8 <__NVIC_SetPriority+0x40>
 80012b2:	683b      	ldr	r3, [r7, #0]
 80012b4:	b2da      	uxtb	r2, r3
 80012b6:	4908      	ldr	r1, [pc, #32]	@ (80012d8 <__NVIC_SetPriority+0x50>)
 80012b8:	79fb      	ldrb	r3, [r7, #7]
 80012ba:	f003 030f 	and.w	r3, r3, #15
 80012be:	3b04      	subs	r3, #4
 80012c0:	0112      	lsls	r2, r2, #4
 80012c2:	b2d2      	uxtb	r2, r2
 80012c4:	440b      	add	r3, r1
 80012c6:	761a      	strb	r2, [r3, #24]
 80012c8:	bf00      	nop
 80012ca:	370c      	adds	r7, #12
 80012cc:	46bd      	mov	sp, r7
 80012ce:	f85d 7b04 	ldr.w	r7, [sp], #4
 80012d2:	4770      	bx	lr
 80012d4:	e000e100 	.word	0xe000e100
 80012d8:	e000ed00 	.word	0xe000ed00

080012dc <NVIC_EncodePriority>:
 80012dc:	b480      	push	{r7}
 80012de:	b089      	sub	sp, #36	@ 0x24
 80012e0:	af00      	add	r7, sp, #0
 80012e2:	60f8      	str	r0, [r7, #12]
 80012e4:	60b9      	str	r1, [r7, #8]
 80012e6:	607a      	str	r2, [r7, #4]
 80012e8:	68fb      	ldr	r3, [r7, #12]
 80012ea:	f003 0307 	and.w	r3, r3, #7
 80012ee:	61fb      	str	r3, [r7, #28]
 80012f0:	69fb      	ldr	r3, [r7, #28]
 80012f2:	f1c3 0307 	rsb	r3, r3, #7
 80012f6:	2b04      	cmp	r3, #4
 80012f8:	bf28      	it	cs
 80012fa:	2304      	movcs	r3, #4
 80012fc:	61bb      	str	r3, [r7, #24]
 80012fe:	69fb      	ldr	r3, [r7, #28]
 8001300:	3304      	adds	r3, #4
 8001302:	2b06      	cmp	r3, #6
 8001304:	d902      	bls.n	800130c <NVIC_EncodePriority+0x30>
 8001306:	69fb      	ldr	r3, [r7, #28]
 8001308:	3b03      	subs	r3, #3
 800130a:	e000      	b.n	800130e <NVIC_EncodePriority+0x32>
 800130c:	2300      	movs	r3, #0
 800130e:	617b      	str	r3, [r7, #20]
 8001310:	f04f 32ff 	mov.w	r2, #4294967295
 8001314:	69bb      	ldr	r3, [r7, #24]
 8001316:	fa02 f303 	lsl.w	r3, r2, r3
 800131a:	43da      	mvns	r2, r3
 800131c:	68bb      	ldr	r3, [r7, #8]
 800131e:	401a      	ands	r2, r3
 8001320:	697b      	ldr	r3, [r7, #20]
 8001322:	409a      	lsls	r2, r3
 8001324:	f04f 31ff 	mov.w	r1, #4294967295
 8001328:	697b      	ldr	r3, [r7, #20]
 800132a:	fa01 f303 	lsl.w	r3, r1, r3
 800132e:	43d9      	mvns	r1, r3
 8001330:	687b      	ldr	r3, [r7, #4]
 8001332:	400b      	ands	r3, r1
 8001334:	4313      	orrs	r3, r2
 8001336:	4618      	mov	r0, r3
 8001338:	3724      	adds	r7, #36	@ 0x24
 800133a:	46bd      	mov	sp, r7
 800133c:	f85d 7b04 	ldr.w	r7, [sp], #4
 8001340:	4770      	bx	lr
	...

08001344 <SysTick_Config>:
 8001344:	b580      	push	{r7, lr}
 8001346:	b082      	sub	sp, #8
 8001348:	af00      	add	r7, sp, #0
 800134a:	6078      	str	r0, [r7, #4]
 800134c:	687b      	ldr	r3, [r7, #4]
 800134e:	3b01      	subs	r3, #1
 8001350:	f1b3 7f80 	cmp.w	r3, #16777216	@ 0x1000000
 8001354:	d301      	bcc.n	800135a <SysTick_Config+0x16>
 8001356:	2301      	movs	r3, #1
 8001358:	e00f      	b.n	800137a <SysTick_Config+0x36>
 800135a:	4a0a      	ldr	r2, [pc, #40]	@ (8001384 <SysTick_Config+0x40>)
 800135c:	687b      	ldr	r3, [r7, #4]
 800135e:	3b01      	subs	r3, #1
 8001360:	6053      	str	r3, [r2, #4]
 8001362:	210f      	movs	r1, #15
 8001364:	f04f 30ff 	mov.w	r0, #4294967295
 8001368:	f7ff ff8e 	bl	8001288 <__NVIC_SetPriority>
 800136c:	4b05      	ldr	r3, [pc, #20]	@ (8001384 <SysTick_Config+0x40>)
 800136e:	2200      	movs	r2, #0
 8001370:	609a      	str	r2, [r3, #8]
 8001372:	4b04      	ldr	r3, [pc, #16]	@ (8001384 <SysTick_Config+0x40>)
 8001374:	2207      	movs	r2, #7
 8001376:	601a      	str	r2, [r3, #0]
 8001378:	2300      	movs	r3, #0
 800137a:	4618      	mov	r0, r3
 800137c:	3708      	adds	r7, #8
 800137e:	46bd      	mov	sp, r7
 8001380:	bd80      	pop	{r7, pc}
 8001382:	bf00      	nop
 8001384:	e000e010 	.word	0xe000e010

08001388 <HAL_NVIC_SetPriorityGrouping>:
 8001388:	b580      	push	{r7, lr}
 800138a:	b082      	sub	sp, #8
 800138c:	af00      	add	r7, sp, #0
 800138e:	6078      	str	r0, [r7, #4]
 8001390:	6878      	ldr	r0, [r7, #4]
 8001392:	f7ff ff29 	bl	80011e8 <__NVIC_SetPriorityGrouping>
 8001396:	bf00      	nop
 8001398:	3708      	adds	r7, #8
 800139a:	46bd      	mov	sp, r7
 800139c:	bd80      	pop	{r7, pc}

0800139e <HAL_NVIC_SetPriority>:
 800139e:	b580      	push	{r7, lr}
 80013a0:	b086      	sub	sp, #24
 80013a2:	af00      	add	r7, sp, #0
 80013a4:	4603      	mov	r3, r0
 80013a6:	60b9      	str	r1, [r7, #8]
 80013a8:	607a      	str	r2, [r7, #4]
 80013aa:	73fb      	strb	r3, [r7, #15]
 80013ac:	2300      	movs	r3, #0
 80013ae:	617b      	str	r3, [r7, #20]
 80013b0:	f7ff ff3e 	bl	8001230 <__NVIC_GetPriorityGrouping>
 80013b4:	6178      	str	r0, [r7, #20]
 80013b6:	687a      	ldr	r2, [r7, #4]
 80013b8:	68b9      	ldr	r1, [r7, #8]
 80013ba:	6978      	ldr	r0, [r7, #20]
 80013bc:	f7ff ff8e 	bl	80012dc <NVIC_EncodePriority>
 80013c0:	4602      	mov	r2, r0
 80013c2:	f997 300f 	ldrsb.w	r3, [r7, #15]
 80013c6:	4611      	mov	r1, r2
 80013c8:	4618      	mov	r0, r3
 80013ca:	f7ff ff5d 	bl	8001288 <__NVIC_SetPriority>
 80013ce:	bf00      	nop
 80013d0:	3718      	adds	r7, #24
 80013d2:	46bd      	mov	sp, r7
 80013d4:	bd80      	pop	{r7, pc}

080013d6 <HAL_NVIC_EnableIRQ>:
 80013d6:	b580      	push	{r7, lr}
 80013d8:	b082      	sub	sp, #8
 80013da:	af00      	add	r7, sp, #0
 80013dc:	4603      	mov	r3, r0
 80013de:	71fb      	strb	r3, [r7, #7]
 80013e0:	f997 3007 	ldrsb.w	r3, [r7, #7]
 80013e4:	4618      	mov	r0, r3
 80013e6:	f7ff ff31 	bl	800124c <__NVIC_EnableIRQ>
 80013ea:	bf00      	nop
 80013ec:	3708      	adds	r7, #8
 80013ee:	46bd      	mov	sp, r7
 80013f0:	bd80      	pop	{r7, pc}

080013f2 <HAL_SYSTICK_Config>:
 80013f2:	b580      	push	{r7, lr}
 80013f4:	b082      	sub	sp, #8
 80013f6:	af00      	add	r7, sp, #0
 80013f8:	6078      	str	r0, [r7, #4]
 80013fa:	6878      	ldr	r0, [r7, #4]
 80013fc:	f7ff ffa2 	bl	8001344 <SysTick_Config>
 8001400:	4603      	mov	r3, r0
 8001402:	4618      	mov	r0, r3
 8001404:	3708      	adds	r7, #8
 8001406:	46bd      	mov	sp, r7
 8001408:	bd80      	pop	{r7, pc}
	...

0800140c <HAL_DMA_Init>:
 800140c:	b580      	push	{r7, lr}
 800140e:	b086      	sub	sp, #24
 8001410:	af00      	add	r7, sp, #0
 8001412:	6078      	str	r0, [r7, #4]
 8001414:	2300      	movs	r3, #0
 8001416:	617b      	str	r3, [r7, #20]
 8001418:	f7ff feb6 	bl	8001188 <HAL_GetTick>
 800141c:	6138      	str	r0, [r7, #16]
 800141e:	687b      	ldr	r3, [r7, #4]
 8001420:	2b00      	cmp	r3, #0
 8001422:	d101      	bne.n	8001428 <HAL_DMA_Init+0x1c>
 8001424:	2301      	movs	r3, #1
 8001426:	e099      	b.n	800155c <HAL_DMA_Init+0x150>
 8001428:	687b      	ldr	r3, [r7, #4]
 800142a:	2202      	movs	r2, #2
 800142c:	f883 2035 	strb.w	r2, [r3, #53]	@ 0x35
 8001430:	687b      	ldr	r3, [r7, #4]
 8001432:	2200      	movs	r2, #0
 8001434:	f883 2034 	strb.w	r2, [r3, #52]	@ 0x34
 8001438:	687b      	ldr	r3, [r7, #4]
 800143a:	681b      	ldr	r3, [r3, #0]
 800143c:	681a      	ldr	r2, [r3, #0]
 800143e:	687b      	ldr	r3, [r7, #4]
 8001440:	681b      	ldr	r3, [r3, #0]
 8001442:	f022 0201 	bic.w	r2, r2, #1
 8001446:	601a      	str	r2, [r3, #0]
 8001448:	e00f      	b.n	800146a <HAL_DMA_Init+0x5e>
 800144a:	f7ff fe9d 	bl	8001188 <HAL_GetTick>
 800144e:	4602      	mov	r2, r0
 8001450:	693b      	ldr	r3, [r7, #16]
 8001452:	1ad3      	subs	r3, r2, r3
 8001454:	2b05      	cmp	r3, #5
 8001456:	d908      	bls.n	800146a <HAL_DMA_Init+0x5e>
 8001458:	687b      	ldr	r3, [r7, #4]
 800145a:	2220      	movs	r2, #32
 800145c:	655a      	str	r2, [r3, #84]	@ 0x54
 800145e:	687b      	ldr	r3, [r7, #4]
 8001460:	2203      	movs	r2, #3
 8001462:	f883 2035 	strb.w	r2, [r3, #53]	@ 0x35
 8001466:	2303      	movs	r3, #3
 8001468:	e078      	b.n	800155c <HAL_DMA_Init+0x150>
 800146a:	687b      	ldr	r3, [r7, #4]
 800146c:	681b      	ldr	r3, [r3, #0]
 800146e:	681b      	ldr	r3, [r3, #0]
 8001470:	f003 0301 	and.w	r3, r3, #1
 8001474:	2b00      	cmp	r3, #0
 8001476:	d1e8      	bne.n	800144a <HAL_DMA_Init+0x3e>
 8001478:	687b      	ldr	r3, [r7, #4]
 800147a:	681b      	ldr	r3, [r3, #0]
 800147c:	681b      	ldr	r3, [r3, #0]
 800147e:	617b      	str	r3, [r7, #20]
 8001480:	697a      	ldr	r2, [r7, #20]
 8001482:	4b38      	ldr	r3, [pc, #224]	@ (8001564 <HAL_DMA_Init+0x158>)
 8001484:	4013      	ands	r3, r2
 8001486:	617b      	str	r3, [r7, #20]
 8001488:	687b      	ldr	r3, [r7, #4]
 800148a:	685a      	ldr	r2, [r3, #4]
 800148c:	687b      	ldr	r3, [r7, #4]
 800148e:	689b      	ldr	r3, [r3, #8]
 8001490:	431a      	orrs	r2, r3
 8001492:	687b      	ldr	r3, [r7, #4]
 8001494:	68db      	ldr	r3, [r3, #12]
 8001496:	431a      	orrs	r2, r3
 8001498:	687b      	ldr	r3, [r7, #4]
 800149a:	691b      	ldr	r3, [r3, #16]
 800149c:	431a      	orrs	r2, r3
 800149e:	687b      	ldr	r3, [r7, #4]
 80014a0:	695b      	ldr	r3, [r3, #20]
 80014a2:	431a      	orrs	r2, r3
 80014a4:	687b      	ldr	r3, [r7, #4]
 80014a6:	699b      	ldr	r3, [r3, #24]
 80014a8:	431a      	orrs	r2, r3
 80014aa:	687b      	ldr	r3, [r7, #4]
 80014ac:	69db      	ldr	r3, [r3, #28]
 80014ae:	431a      	orrs	r2, r3
 80014b0:	687b      	ldr	r3, [r7, #4]
 80014b2:	6a1b      	ldr	r3, [r3, #32]
 80014b4:	4313      	orrs	r3, r2
 80014b6:	697a      	ldr	r2, [r7, #20]
 80014b8:	4313      	orrs	r3, r2
 80014ba:	617b      	str	r3, [r7, #20]
 80014bc:	687b      	ldr	r3, [r7, #4]
 80014be:	6a5b      	ldr	r3, [r3, #36]	@ 0x24
 80014c0:	2b04      	cmp	r3, #4
 80014c2:	d107      	bne.n	80014d4 <HAL_DMA_Init+0xc8>
 80014c4:	687b      	ldr	r3, [r7, #4]
 80014c6:	6ada      	ldr	r2, [r3, #44]	@ 0x2c
 80014c8:	687b      	ldr	r3, [r7, #4]
 80014ca:	6b1b      	ldr	r3, [r3, #48]	@ 0x30
 80014cc:	4313      	orrs	r3, r2
 80014ce:	697a      	ldr	r2, [r7, #20]
 80014d0:	4313      	orrs	r3, r2
 80014d2:	617b      	str	r3, [r7, #20]
 80014d4:	687b      	ldr	r3, [r7, #4]
 80014d6:	681b      	ldr	r3, [r3, #0]
 80014d8:	697a      	ldr	r2, [r7, #20]
 80014da:	601a      	str	r2, [r3, #0]
 80014dc:	687b      	ldr	r3, [r7, #4]
 80014de:	681b      	ldr	r3, [r3, #0]
 80014e0:	695b      	ldr	r3, [r3, #20]
 80014e2:	617b      	str	r3, [r7, #20]
 80014e4:	697b      	ldr	r3, [r7, #20]
 80014e6:	f023 0307 	bic.w	r3, r3, #7
 80014ea:	617b      	str	r3, [r7, #20]
 80014ec:	687b      	ldr	r3, [r7, #4]
 80014ee:	6a5b      	ldr	r3, [r3, #36]	@ 0x24
 80014f0:	697a      	ldr	r2, [r7, #20]
 80014f2:	4313      	orrs	r3, r2
 80014f4:	617b      	str	r3, [r7, #20]
 80014f6:	687b      	ldr	r3, [r7, #4]
 80014f8:	6a5b      	ldr	r3, [r3, #36]	@ 0x24
 80014fa:	2b04      	cmp	r3, #4
 80014fc:	d117      	bne.n	800152e <HAL_DMA_Init+0x122>
 80014fe:	687b      	ldr	r3, [r7, #4]
 8001500:	6a9b      	ldr	r3, [r3, #40]	@ 0x28
 8001502:	697a      	ldr	r2, [r7, #20]
 8001504:	4313      	orrs	r3, r2
 8001506:	617b      	str	r3, [r7, #20]
 8001508:	687b      	ldr	r3, [r7, #4]
 800150a:	6adb      	ldr	r3, [r3, #44]	@ 0x2c
 800150c:	2b00      	cmp	r3, #0
 800150e:	d00e      	beq.n	800152e <HAL_DMA_Init+0x122>
 8001510:	6878      	ldr	r0, [r7, #4]
 8001512:	f000 fa6f 	bl	80019f4 <DMA_CheckFifoParam>
 8001516:	4603      	mov	r3, r0
 8001518:	2b00      	cmp	r3, #0
 800151a:	d008      	beq.n	800152e <HAL_DMA_Init+0x122>
 800151c:	687b      	ldr	r3, [r7, #4]
 800151e:	2240      	movs	r2, #64	@ 0x40
 8001520:	655a      	str	r2, [r3, #84]	@ 0x54
 8001522:	687b      	ldr	r3, [r7, #4]
 8001524:	2201      	movs	r2, #1
 8001526:	f883 2035 	strb.w	r2, [r3, #53]	@ 0x35
 800152a:	2301      	movs	r3, #1
 800152c:	e016      	b.n	800155c <HAL_DMA_Init+0x150>
 800152e:	687b      	ldr	r3, [r7, #4]
 8001530:	681b      	ldr	r3, [r3, #0]
 8001532:	697a      	ldr	r2, [r7, #20]
 8001534:	615a      	str	r2, [r3, #20]
 8001536:	6878      	ldr	r0, [r7, #4]
 8001538:	f000 fa26 	bl	8001988 <DMA_CalcBaseAndBitshift>
 800153c:	4603      	mov	r3, r0
 800153e:	60fb      	str	r3, [r7, #12]
 8001540:	687b      	ldr	r3, [r7, #4]
 8001542:	6ddb      	ldr	r3, [r3, #92]	@ 0x5c
 8001544:	223f      	movs	r2, #63	@ 0x3f
 8001546:	409a      	lsls	r2, r3
 8001548:	68fb      	ldr	r3, [r7, #12]
 800154a:	609a      	str	r2, [r3, #8]
 800154c:	687b      	ldr	r3, [r7, #4]
 800154e:	2200      	movs	r2, #0
 8001550:	655a      	str	r2, [r3, #84]	@ 0x54
 8001552:	687b      	ldr	r3, [r7, #4]
 8001554:	2201      	movs	r2, #1
 8001556:	f883 2035 	strb.w	r2, [r3, #53]	@ 0x35
 800155a:	2300      	movs	r3, #0
 800155c:	4618      	mov	r0, r3
 800155e:	3718      	adds	r7, #24
 8001560:	46bd      	mov	sp, r7
 8001562:	bd80      	pop	{r7, pc}
 8001564:	f010803f 	.word	0xf010803f

08001568 <HAL_DMA_Start_IT>:
 8001568:	b580      	push	{r7, lr}
 800156a:	b086      	sub	sp, #24
 800156c:	af00      	add	r7, sp, #0
 800156e:	60f8      	str	r0, [r7, #12]
 8001570:	60b9      	str	r1, [r7, #8]
 8001572:	607a      	str	r2, [r7, #4]
 8001574:	603b      	str	r3, [r7, #0]
 8001576:	2300      	movs	r3, #0
 8001578:	75fb      	strb	r3, [r7, #23]
 800157a:	68fb      	ldr	r3, [r7, #12]
 800157c:	6d9b      	ldr	r3, [r3, #88]	@ 0x58
 800157e:	613b      	str	r3, [r7, #16]
 8001580:	68fb      	ldr	r3, [r7, #12]
 8001582:	f893 3034 	ldrb.w	r3, [r3, #52]	@ 0x34
 8001586:	2b01      	cmp	r3, #1
 8001588:	d101      	bne.n	800158e <HAL_DMA_Start_IT+0x26>
 800158a:	2302      	movs	r3, #2
 800158c:	e040      	b.n	8001610 <HAL_DMA_Start_IT+0xa8>
 800158e:	68fb      	ldr	r3, [r7, #12]
 8001590:	2201      	movs	r2, #1
 8001592:	f883 2034 	strb.w	r2, [r3, #52]	@ 0x34
 8001596:	68fb      	ldr	r3, [r7, #12]
 8001598:	f893 3035 	ldrb.w	r3, [r3, #53]	@ 0x35
 800159c:	b2db      	uxtb	r3, r3
 800159e:	2b01      	cmp	r3, #1
 80015a0:	d12f      	bne.n	8001602 <HAL_DMA_Start_IT+0x9a>
 80015a2:	68fb      	ldr	r3, [r7, #12]
 80015a4:	2202      	movs	r2, #2
 80015a6:	f883 2035 	strb.w	r2, [r3, #53]	@ 0x35
 80015aa:	68fb      	ldr	r3, [r7, #12]
 80015ac:	2200      	movs	r2, #0
 80015ae:	655a      	str	r2, [r3, #84]	@ 0x54
 80015b0:	683b      	ldr	r3, [r7, #0]
 80015b2:	687a      	ldr	r2, [r7, #4]
 80015b4:	68b9      	ldr	r1, [r7, #8]
 80015b6:	68f8      	ldr	r0, [r7, #12]
 80015b8:	f000 f9b8 	bl	800192c <DMA_SetConfig>
 80015bc:	68fb      	ldr	r3, [r7, #12]
 80015be:	6ddb      	ldr	r3, [r3, #92]	@ 0x5c
 80015c0:	223f      	movs	r2, #63	@ 0x3f
 80015c2:	409a      	lsls	r2, r3
 80015c4:	693b      	ldr	r3, [r7, #16]
 80015c6:	609a      	str	r2, [r3, #8]
 80015c8:	68fb      	ldr	r3, [r7, #12]
 80015ca:	681b      	ldr	r3, [r3, #0]
 80015cc:	681a      	ldr	r2, [r3, #0]
 80015ce:	68fb      	ldr	r3, [r7, #12]
 80015d0:	681b      	ldr	r3, [r3, #0]
 80015d2:	f042 0216 	orr.w	r2, r2, #22
 80015d6:	601a      	str	r2, [r3, #0]
 80015d8:	68fb      	ldr	r3, [r7, #12]
 80015da:	6c1b      	ldr	r3, [r3, #64]	@ 0x40
 80015dc:	2b00      	cmp	r3, #0
 80015de:	d007      	beq.n	80015f0 <HAL_DMA_Start_IT+0x88>
 80015e0:	68fb      	ldr	r3, [r7, #12]
 80015e2:	681b      	ldr	r3, [r3, #0]
 80015e4:	681a      	ldr	r2, [r3, #0]
 80015e6:	68fb      	ldr	r3, [r7, #12]
 80015e8:	681b      	ldr	r3, [r3, #0]
 80015ea:	f042 0208 	orr.w	r2, r2, #8
 80015ee:	601a      	str	r2, [r3, #0]
 80015f0:	68fb      	ldr	r3, [r7, #12]
 80015f2:	681b      	ldr	r3, [r3, #0]
 80015f4:	681a      	ldr	r2, [r3, #0]
 80015f6:	68fb      	ldr	r3, [r7, #12]
 80015f8:	681b      	ldr	r3, [r3, #0]
 80015fa:	f042 0201 	orr.w	r2, r2, #1
 80015fe:	601a      	str	r2, [r3, #0]
 8001600:	e005      	b.n	800160e <HAL_DMA_Start_IT+0xa6>
 8001602:	68fb      	ldr	r3, [r7, #12]
 8001604:	2200      	movs	r2, #0
 8001606:	f883 2034 	strb.w	r2, [r3, #52]	@ 0x34
 800160a:	2302      	movs	r3, #2
 800160c:	75fb      	strb	r3, [r7, #23]
 800160e:	7dfb      	ldrb	r3, [r7, #23]
 8001610:	4618      	mov	r0, r3
 8001612:	3718      	adds	r7, #24
 8001614:	46bd      	mov	sp, r7
 8001616:	bd80      	pop	{r7, pc}

08001618 <HAL_DMA_IRQHandler>:
 8001618:	b580      	push	{r7, lr}
 800161a:	b086      	sub	sp, #24
 800161c:	af00      	add	r7, sp, #0
 800161e:	6078      	str	r0, [r7, #4]
 8001620:	2300      	movs	r3, #0
 8001622:	60bb      	str	r3, [r7, #8]
 8001624:	4b8e      	ldr	r3, [pc, #568]	@ (8001860 <HAL_DMA_IRQHandler+0x248>)
 8001626:	681b      	ldr	r3, [r3, #0]
 8001628:	4a8e      	ldr	r2, [pc, #568]	@ (8001864 <HAL_DMA_IRQHandler+0x24c>)
 800162a:	fba2 2303 	umull	r2, r3, r2, r3
 800162e:	0a9b      	lsrs	r3, r3, #10
 8001630:	617b      	str	r3, [r7, #20]
 8001632:	687b      	ldr	r3, [r7, #4]
 8001634:	6d9b      	ldr	r3, [r3, #88]	@ 0x58
 8001636:	613b      	str	r3, [r7, #16]
 8001638:	693b      	ldr	r3, [r7, #16]
 800163a:	681b      	ldr	r3, [r3, #0]
 800163c:	60fb      	str	r3, [r7, #12]
 800163e:	687b      	ldr	r3, [r7, #4]
 8001640:	6ddb      	ldr	r3, [r3, #92]	@ 0x5c
 8001642:	2208      	movs	r2, #8
 8001644:	409a      	lsls	r2, r3
 8001646:	68fb      	ldr	r3, [r7, #12]
 8001648:	4013      	ands	r3, r2
 800164a:	2b00      	cmp	r3, #0
 800164c:	d01a      	beq.n	8001684 <HAL_DMA_IRQHandler+0x6c>
 800164e:	687b      	ldr	r3, [r7, #4]
 8001650:	681b      	ldr	r3, [r3, #0]
 8001652:	681b      	ldr	r3, [r3, #0]
 8001654:	f003 0304 	and.w	r3, r3, #4
 8001658:	2b00      	cmp	r3, #0
 800165a:	d013      	beq.n	8001684 <HAL_DMA_IRQHandler+0x6c>
 800165c:	687b      	ldr	r3, [r7, #4]
 800165e:	681b      	ldr	r3, [r3, #0]
 8001660:	681a      	ldr	r2, [r3, #0]
 8001662:	687b      	ldr	r3, [r7, #4]
 8001664:	681b      	ldr	r3, [r3, #0]
 8001666:	f022 0204 	bic.w	r2, r2, #4
 800166a:	601a      	str	r2, [r3, #0]
 800166c:	687b      	ldr	r3, [r7, #4]
 800166e:	6ddb      	ldr	r3, [r3, #92]	@ 0x5c
 8001670:	2208      	movs	r2, #8
 8001672:	409a      	lsls	r2, r3
 8001674:	693b      	ldr	r3, [r7, #16]
 8001676:	609a      	str	r2, [r3, #8]
 8001678:	687b      	ldr	r3, [r7, #4]
 800167a:	6d5b      	ldr	r3, [r3, #84]	@ 0x54
 800167c:	f043 0201 	orr.w	r2, r3, #1
 8001680:	687b      	ldr	r3, [r7, #4]
 8001682:	655a      	str	r2, [r3, #84]	@ 0x54
 8001684:	687b      	ldr	r3, [r7, #4]
 8001686:	6ddb      	ldr	r3, [r3, #92]	@ 0x5c
 8001688:	2201      	movs	r2, #1
 800168a:	409a      	lsls	r2, r3
 800168c:	68fb      	ldr	r3, [r7, #12]
 800168e:	4013      	ands	r3, r2
 8001690:	2b00      	cmp	r3, #0
 8001692:	d012      	beq.n	80016ba <HAL_DMA_IRQHandler+0xa2>
 8001694:	687b      	ldr	r3, [r7, #4]
 8001696:	681b      	ldr	r3, [r3, #0]
 8001698:	695b      	ldr	r3, [r3, #20]
 800169a:	f003 0380 	and.w	r3, r3, #128	@ 0x80
 800169e:	2b00      	cmp	r3, #0
 80016a0:	d00b      	beq.n	80016ba <HAL_DMA_IRQHandler+0xa2>
 80016a2:	687b      	ldr	r3, [r7, #4]
 80016a4:	6ddb      	ldr	r3, [r3, #92]	@ 0x5c
 80016a6:	2201      	movs	r2, #1
 80016a8:	409a      	lsls	r2, r3
 80016aa:	693b      	ldr	r3, [r7, #16]
 80016ac:	609a      	str	r2, [r3, #8]
 80016ae:	687b      	ldr	r3, [r7, #4]
 80016b0:	6d5b      	ldr	r3, [r3, #84]	@ 0x54
 80016b2:	f043 0202 	orr.w	r2, r3, #2
 80016b6:	687b      	ldr	r3, [r7, #4]
 80016b8:	655a      	str	r2, [r3, #84]	@ 0x54
 80016ba:	687b      	ldr	r3, [r7, #4]
 80016bc:	6ddb      	ldr	r3, [r3, #92]	@ 0x5c
 80016be:	2204      	movs	r2, #4
 80016c0:	409a      	lsls	r2, r3
 80016c2:	68fb      	ldr	r3, [r7, #12]
 80016c4:	4013      	ands	r3, r2
 80016c6:	2b00      	cmp	r3, #0
 80016c8:	d012      	beq.n	80016f0 <HAL_DMA_IRQHandler+0xd8>
 80016ca:	687b      	ldr	r3, [r7, #4]
 80016cc:	681b      	ldr	r3, [r3, #0]
 80016ce:	681b      	ldr	r3, [r3, #0]
 80016d0:	f003 0302 	and.w	r3, r3, #2
 80016d4:	2b00      	cmp	r3, #0
 80016d6:	d00b      	beq.n	80016f0 <HAL_DMA_IRQHandler+0xd8>
 80016d8:	687b      	ldr	r3, [r7, #4]
 80016da:	6ddb      	ldr	r3, [r3, #92]	@ 0x5c
 80016dc:	2204      	movs	r2, #4
 80016de:	409a      	lsls	r2, r3
 80016e0:	693b      	ldr	r3, [r7, #16]
 80016e2:	609a      	str	r2, [r3, #8]
 80016e4:	687b      	ldr	r3, [r7, #4]
 80016e6:	6d5b      	ldr	r3, [r3, #84]	@ 0x54
 80016e8:	f043 0204 	orr.w	r2, r3, #4
 80016ec:	687b      	ldr	r3, [r7, #4]
 80016ee:	655a      	str	r2, [r3, #84]	@ 0x54
 80016f0:	687b      	ldr	r3, [r7, #4]
 80016f2:	6ddb      	ldr	r3, [r3, #92]	@ 0x5c
 80016f4:	2210      	movs	r2, #16
 80016f6:	409a      	lsls	r2, r3
 80016f8:	68fb      	ldr	r3, [r7, #12]
 80016fa:	4013      	ands	r3, r2
 80016fc:	2b00      	cmp	r3, #0
 80016fe:	d043      	beq.n	8001788 <HAL_DMA_IRQHandler+0x170>
 8001700:	687b      	ldr	r3, [r7, #4]
 8001702:	681b      	ldr	r3, [r3, #0]
 8001704:	681b      	ldr	r3, [r3, #0]
 8001706:	f003 0308 	and.w	r3, r3, #8
 800170a:	2b00      	cmp	r3, #0
 800170c:	d03c      	beq.n	8001788 <HAL_DMA_IRQHandler+0x170>
 800170e:	687b      	ldr	r3, [r7, #4]
 8001710:	6ddb      	ldr	r3, [r3, #92]	@ 0x5c
 8001712:	2210      	movs	r2, #16
 8001714:	409a      	lsls	r2, r3
 8001716:	693b      	ldr	r3, [r7, #16]
 8001718:	609a      	str	r2, [r3, #8]
 800171a:	687b      	ldr	r3, [r7, #4]
 800171c:	681b      	ldr	r3, [r3, #0]
 800171e:	681b      	ldr	r3, [r3, #0]
 8001720:	f403 2380 	and.w	r3, r3, #262144	@ 0x40000
 8001724:	2b00      	cmp	r3, #0
 8001726:	d018      	beq.n	800175a <HAL_DMA_IRQHandler+0x142>
 8001728:	687b      	ldr	r3, [r7, #4]
 800172a:	681b      	ldr	r3, [r3, #0]
 800172c:	681b      	ldr	r3, [r3, #0]
 800172e:	f403 2300 	and.w	r3, r3, #524288	@ 0x80000
 8001732:	2b00      	cmp	r3, #0
 8001734:	d108      	bne.n	8001748 <HAL_DMA_IRQHandler+0x130>
 8001736:	687b      	ldr	r3, [r7, #4]
 8001738:	6c1b      	ldr	r3, [r3, #64]	@ 0x40
 800173a:	2b00      	cmp	r3, #0
 800173c:	d024      	beq.n	8001788 <HAL_DMA_IRQHandler+0x170>
 800173e:	687b      	ldr	r3, [r7, #4]
 8001740:	6c1b      	ldr	r3, [r3, #64]	@ 0x40
 8001742:	6878      	ldr	r0, [r7, #4]
 8001744:	4798      	blx	r3
 8001746:	e01f      	b.n	8001788 <HAL_DMA_IRQHandler+0x170>
 8001748:	687b      	ldr	r3, [r7, #4]
 800174a:	6c9b      	ldr	r3, [r3, #72]	@ 0x48
 800174c:	2b00      	cmp	r3, #0
 800174e:	d01b      	beq.n	8001788 <HAL_DMA_IRQHandler+0x170>
 8001750:	687b      	ldr	r3, [r7, #4]
 8001752:	6c9b      	ldr	r3, [r3, #72]	@ 0x48
 8001754:	6878      	ldr	r0, [r7, #4]
 8001756:	4798      	blx	r3
 8001758:	e016      	b.n	8001788 <HAL_DMA_IRQHandler+0x170>
 800175a:	687b      	ldr	r3, [r7, #4]
 800175c:	681b      	ldr	r3, [r3, #0]
 800175e:	681b      	ldr	r3, [r3, #0]
 8001760:	f403 7380 	and.w	r3, r3, #256	@ 0x100
 8001764:	2b00      	cmp	r3, #0
 8001766:	d107      	bne.n	8001778 <HAL_DMA_IRQHandler+0x160>
 8001768:	687b      	ldr	r3, [r7, #4]
 800176a:	681b      	ldr	r3, [r3, #0]
 800176c:	681a      	ldr	r2, [r3, #0]
 800176e:	687b      	ldr	r3, [r7, #4]
 8001770:	681b      	ldr	r3, [r3, #0]
 8001772:	f022 0208 	bic.w	r2, r2, #8
 8001776:	601a      	str	r2, [r3, #0]
 8001778:	687b      	ldr	r3, [r7, #4]
 800177a:	6c1b      	ldr	r3, [r3, #64]	@ 0x40
 800177c:	2b00      	cmp	r3, #0
 800177e:	d003      	beq.n	8001788 <HAL_DMA_IRQHandler+0x170>
 8001780:	687b      	ldr	r3, [r7, #4]
 8001782:	6c1b      	ldr	r3, [r3, #64]	@ 0x40
 8001784:	6878      	ldr	r0, [r7, #4]
 8001786:	4798      	blx	r3
 8001788:	687b      	ldr	r3, [r7, #4]
 800178a:	6ddb      	ldr	r3, [r3, #92]	@ 0x5c
 800178c:	2220      	movs	r2, #32
 800178e:	409a      	lsls	r2, r3
 8001790:	68fb      	ldr	r3, [r7, #12]
 8001792:	4013      	ands	r3, r2
 8001794:	2b00      	cmp	r3, #0
 8001796:	f000 808f 	beq.w	80018b8 <HAL_DMA_IRQHandler+0x2a0>
 800179a:	687b      	ldr	r3, [r7, #4]
 800179c:	681b      	ldr	r3, [r3, #0]
 800179e:	681b      	ldr	r3, [r3, #0]
 80017a0:	f003 0310 	and.w	r3, r3, #16
 80017a4:	2b00      	cmp	r3, #0
 80017a6:	f000 8087 	beq.w	80018b8 <HAL_DMA_IRQHandler+0x2a0>
 80017aa:	687b      	ldr	r3, [r7, #4]
 80017ac:	6ddb      	ldr	r3, [r3, #92]	@ 0x5c
 80017ae:	2220      	movs	r2, #32
 80017b0:	409a      	lsls	r2, r3
 80017b2:	693b      	ldr	r3, [r7, #16]
 80017b4:	609a      	str	r2, [r3, #8]
 80017b6:	687b      	ldr	r3, [r7, #4]
 80017b8:	f893 3035 	ldrb.w	r3, [r3, #53]	@ 0x35
 80017bc:	b2db      	uxtb	r3, r3
 80017be:	2b05      	cmp	r3, #5
 80017c0:	d136      	bne.n	8001830 <HAL_DMA_IRQHandler+0x218>
 80017c2:	687b      	ldr	r3, [r7, #4]
 80017c4:	681b      	ldr	r3, [r3, #0]
 80017c6:	681a      	ldr	r2, [r3, #0]
 80017c8:	687b      	ldr	r3, [r7, #4]
 80017ca:	681b      	ldr	r3, [r3, #0]
 80017cc:	f022 0216 	bic.w	r2, r2, #22
 80017d0:	601a      	str	r2, [r3, #0]
 80017d2:	687b      	ldr	r3, [r7, #4]
 80017d4:	681b      	ldr	r3, [r3, #0]
 80017d6:	695a      	ldr	r2, [r3, #20]
 80017d8:	687b      	ldr	r3, [r7, #4]
 80017da:	681b      	ldr	r3, [r3, #0]
 80017dc:	f022 0280 	bic.w	r2, r2, #128	@ 0x80
 80017e0:	615a      	str	r2, [r3, #20]
 80017e2:	687b      	ldr	r3, [r7, #4]
 80017e4:	6c1b      	ldr	r3, [r3, #64]	@ 0x40
 80017e6:	2b00      	cmp	r3, #0
 80017e8:	d103      	bne.n	80017f2 <HAL_DMA_IRQHandler+0x1da>
 80017ea:	687b      	ldr	r3, [r7, #4]
 80017ec:	6c9b      	ldr	r3, [r3, #72]	@ 0x48
 80017ee:	2b00      	cmp	r3, #0
 80017f0:	d007      	beq.n	8001802 <HAL_DMA_IRQHandler+0x1ea>
 80017f2:	687b      	ldr	r3, [r7, #4]
 80017f4:	681b      	ldr	r3, [r3, #0]
 80017f6:	681a      	ldr	r2, [r3, #0]
 80017f8:	687b      	ldr	r3, [r7, #4]
 80017fa:	681b      	ldr	r3, [r3, #0]
 80017fc:	f022 0208 	bic.w	r2, r2, #8
 8001800:	601a      	str	r2, [r3, #0]
 8001802:	687b      	ldr	r3, [r7, #4]
 8001804:	6ddb      	ldr	r3, [r3, #92]	@ 0x5c
 8001806:	223f      	movs	r2, #63	@ 0x3f
 8001808:	409a      	lsls	r2, r3
 800180a:	693b      	ldr	r3, [r7, #16]
 800180c:	609a      	str	r2, [r3, #8]
 800180e:	687b      	ldr	r3, [r7, #4]
 8001810:	2201      	movs	r2, #1
 8001812:	f883 2035 	strb.w	r2, [r3, #53]	@ 0x35
 8001816:	687b      	ldr	r3, [r7, #4]
 8001818:	2200      	movs	r2, #0
 800181a:	f883 2034 	strb.w	r2, [r3, #52]	@ 0x34
 800181e:	687b      	ldr	r3, [r7, #4]
 8001820:	6d1b      	ldr	r3, [r3, #80]	@ 0x50
 8001822:	2b00      	cmp	r3, #0
 8001824:	d07e      	beq.n	8001924 <HAL_DMA_IRQHandler+0x30c>
 8001826:	687b      	ldr	r3, [r7, #4]
 8001828:	6d1b      	ldr	r3, [r3, #80]	@ 0x50
 800182a:	6878      	ldr	r0, [r7, #4]
 800182c:	4798      	blx	r3
 800182e:	e079      	b.n	8001924 <HAL_DMA_IRQHandler+0x30c>
 8001830:	687b      	ldr	r3, [r7, #4]
 8001832:	681b      	ldr	r3, [r3, #0]
 8001834:	681b      	ldr	r3, [r3, #0]
 8001836:	f403 2380 	and.w	r3, r3, #262144	@ 0x40000
 800183a:	2b00      	cmp	r3, #0
 800183c:	d01d      	beq.n	800187a <HAL_DMA_IRQHandler+0x262>
 800183e:	687b      	ldr	r3, [r7, #4]
 8001840:	681b      	ldr	r3, [r3, #0]
 8001842:	681b      	ldr	r3, [r3, #0]
 8001844:	f403 2300 	and.w	r3, r3, #524288	@ 0x80000
 8001848:	2b00      	cmp	r3, #0
 800184a:	d10d      	bne.n	8001868 <HAL_DMA_IRQHandler+0x250>
 800184c:	687b      	ldr	r3, [r7, #4]
 800184e:	6c5b      	ldr	r3, [r3, #68]	@ 0x44
 8001850:	2b00      	cmp	r3, #0
 8001852:	d031      	beq.n	80018b8 <HAL_DMA_IRQHandler+0x2a0>
 8001854:	687b      	ldr	r3, [r7, #4]
 8001856:	6c5b      	ldr	r3, [r3, #68]	@ 0x44
 8001858:	6878      	ldr	r0, [r7, #4]
 800185a:	4798      	blx	r3
 800185c:	e02c      	b.n	80018b8 <HAL_DMA_IRQHandler+0x2a0>
 800185e:	bf00      	nop
 8001860:	20000000 	.word	0x20000000
 8001864:	1b4e81b5 	.word	0x1b4e81b5
 8001868:	687b      	ldr	r3, [r7, #4]
 800186a:	6bdb      	ldr	r3, [r3, #60]	@ 0x3c
 800186c:	2b00      	cmp	r3, #0
 800186e:	d023      	beq.n	80018b8 <HAL_DMA_IRQHandler+0x2a0>
 8001870:	687b      	ldr	r3, [r7, #4]
 8001872:	6bdb      	ldr	r3, [r3, #60]	@ 0x3c
 8001874:	6878      	ldr	r0, [r7, #4]
 8001876:	4798      	blx	r3
 8001878:	e01e      	b.n	80018b8 <HAL_DMA_IRQHandler+0x2a0>
 800187a:	687b      	ldr	r3, [r7, #4]
 800187c:	681b      	ldr	r3, [r3, #0]
 800187e:	681b      	ldr	r3, [r3, #0]
 8001880:	f403 7380 	and.w	r3, r3, #256	@ 0x100
 8001884:	2b00      	cmp	r3, #0
 8001886:	d10f      	bne.n	80018a8 <HAL_DMA_IRQHandler+0x290>
 8001888:	687b      	ldr	r3, [r7, #4]
 800188a:	681b      	ldr	r3, [r3, #0]
 800188c:	681a      	ldr	r2, [r3, #0]
 800188e:	687b      	ldr	r3, [r7, #4]
 8001890:	681b      	ldr	r3, [r3, #0]
 8001892:	f022 0210 	bic.w	r2, r2, #16
 8001896:	601a      	str	r2, [r3, #0]
 8001898:	687b      	ldr	r3, [r7, #4]
 800189a:	2201      	movs	r2, #1
 800189c:	f883 2035 	strb.w	r2, [r3, #53]	@ 0x35
 80018a0:	687b      	ldr	r3, [r7, #4]
 80018a2:	2200      	movs	r2, #0
 80018a4:	f883 2034 	strb.w	r2, [r3, #52]	@ 0x34
 80018a8:	687b      	ldr	r3, [r7, #4]
 80018aa:	6bdb      	ldr	r3, [r3, #60]	@ 0x3c
 80018ac:	2b00      	cmp	r3, #0
 80018ae:	d003      	beq.n	80018b8 <HAL_DMA_IRQHandler+0x2a0>
 80018b0:	687b      	ldr	r3, [r7, #4]
 80018b2:	6bdb      	ldr	r3, [r3, #60]	@ 0x3c
 80018b4:	6878      	ldr	r0, [r7, #4]
 80018b6:	4798      	blx	r3
 80018b8:	687b      	ldr	r3, [r7, #4]
 80018ba:	6d5b      	ldr	r3, [r3, #84]	@ 0x54
 80018bc:	2b00      	cmp	r3, #0
 80018be:	d032      	beq.n	8001926 <HAL_DMA_IRQHandler+0x30e>
 80018c0:	687b      	ldr	r3, [r7, #4]
 80018c2:	6d5b      	ldr	r3, [r3, #84]	@ 0x54
 80018c4:	f003 0301 	and.w	r3, r3, #1
 80018c8:	2b00      	cmp	r3, #0
 80018ca:	d022      	beq.n	8001912 <HAL_DMA_IRQHandler+0x2fa>
 80018cc:	687b      	ldr	r3, [r7, #4]
 80018ce:	2205      	movs	r2, #5
 80018d0:	f883 2035 	strb.w	r2, [r3, #53]	@ 0x35
 80018d4:	687b      	ldr	r3, [r7, #4]
 80018d6:	681b      	ldr	r3, [r3, #0]
 80018d8:	681a      	ldr	r2, [r3, #0]
 80018da:	687b      	ldr	r3, [r7, #4]
 80018dc:	681b      	ldr	r3, [r3, #0]
 80018de:	f022 0201 	bic.w	r2, r2, #1
 80018e2:	601a      	str	r2, [r3, #0]
 80018e4:	68bb      	ldr	r3, [r7, #8]
 80018e6:	3301      	adds	r3, #1
 80018e8:	60bb      	str	r3, [r7, #8]
 80018ea:	697a      	ldr	r2, [r7, #20]
 80018ec:	429a      	cmp	r2, r3
 80018ee:	d307      	bcc.n	8001900 <HAL_DMA_IRQHandler+0x2e8>
 80018f0:	687b      	ldr	r3, [r7, #4]
 80018f2:	681b      	ldr	r3, [r3, #0]
 80018f4:	681b      	ldr	r3, [r3, #0]
 80018f6:	f003 0301 	and.w	r3, r3, #1
 80018fa:	2b00      	cmp	r3, #0
 80018fc:	d1f2      	bne.n	80018e4 <HAL_DMA_IRQHandler+0x2cc>
 80018fe:	e000      	b.n	8001902 <HAL_DMA_IRQHandler+0x2ea>
 8001900:	bf00      	nop
 8001902:	687b      	ldr	r3, [r7, #4]
 8001904:	2201      	movs	r2, #1
 8001906:	f883 2035 	strb.w	r2, [r3, #53]	@ 0x35
 800190a:	687b      	ldr	r3, [r7, #4]
 800190c:	2200      	movs	r2, #0
 800190e:	f883 2034 	strb.w	r2, [r3, #52]	@ 0x34
 8001912:	687b      	ldr	r3, [r7, #4]
 8001914:	6cdb      	ldr	r3, [r3, #76]	@ 0x4c
 8001916:	2b00      	cmp	r3, #0
 8001918:	d005      	beq.n	8001926 <HAL_DMA_IRQHandler+0x30e>
 800191a:	687b      	ldr	r3, [r7, #4]
 800191c:	6cdb      	ldr	r3, [r3, #76]	@ 0x4c
 800191e:	6878      	ldr	r0, [r7, #4]
 8001920:	4798      	blx	r3
 8001922:	e000      	b.n	8001926 <HAL_DMA_IRQHandler+0x30e>
 8001924:	bf00      	nop
 8001926:	3718      	adds	r7, #24
 8001928:	46bd      	mov	sp, r7
 800192a:	bd80      	pop	{r7, pc}

0800192c <DMA_SetConfig>:
 800192c:	b480      	push	{r7}
 800192e:	b085      	sub	sp, #20
 8001930:	af00      	add	r7, sp, #0
 8001932:	60f8      	str	r0, [r7, #12]
 8001934:	60b9      	str	r1, [r7, #8]
 8001936:	607a      	str	r2, [r7, #4]
 8001938:	603b      	str	r3, [r7, #0]
 800193a:	68fb      	ldr	r3, [r7, #12]
 800193c:	681b      	ldr	r3, [r3, #0]
 800193e:	681a      	ldr	r2, [r3, #0]
 8001940:	68fb      	ldr	r3, [r7, #12]
 8001942:	681b      	ldr	r3, [r3, #0]
 8001944:	f422 2280 	bic.w	r2, r2, #262144	@ 0x40000
 8001948:	601a      	str	r2, [r3, #0]
 800194a:	68fb      	ldr	r3, [r7, #12]
 800194c:	681b      	ldr	r3, [r3, #0]
 800194e:	683a      	ldr	r2, [r7, #0]
 8001950:	605a      	str	r2, [r3, #4]
 8001952:	68fb      	ldr	r3, [r7, #12]
 8001954:	689b      	ldr	r3, [r3, #8]
 8001956:	2b40      	cmp	r3, #64	@ 0x40
 8001958:	d108      	bne.n	800196c <DMA_SetConfig+0x40>
 800195a:	68fb      	ldr	r3, [r7, #12]
 800195c:	681b      	ldr	r3, [r3, #0]
 800195e:	687a      	ldr	r2, [r7, #4]
 8001960:	609a      	str	r2, [r3, #8]
 8001962:	68fb      	ldr	r3, [r7, #12]
 8001964:	681b      	ldr	r3, [r3, #0]
 8001966:	68ba      	ldr	r2, [r7, #8]
 8001968:	60da      	str	r2, [r3, #12]
 800196a:	e007      	b.n	800197c <DMA_SetConfig+0x50>
 800196c:	68fb      	ldr	r3, [r7, #12]
 800196e:	681b      	ldr	r3, [r3, #0]
 8001970:	68ba      	ldr	r2, [r7, #8]
 8001972:	609a      	str	r2, [r3, #8]
 8001974:	68fb      	ldr	r3, [r7, #12]
 8001976:	681b      	ldr	r3, [r3, #0]
 8001978:	687a      	ldr	r2, [r7, #4]
 800197a:	60da      	str	r2, [r3, #12]
 800197c:	bf00      	nop
 800197e:	3714      	adds	r7, #20
 8001980:	46bd      	mov	sp, r7
 8001982:	f85d 7b04 	ldr.w	r7, [sp], #4
 8001986:	4770      	bx	lr

08001988 <DMA_CalcBaseAndBitshift>:
 8001988:	b480      	push	{r7}
 800198a:	b085      	sub	sp, #20
 800198c:	af00      	add	r7, sp, #0
 800198e:	6078      	str	r0, [r7, #4]
 8001990:	687b      	ldr	r3, [r7, #4]
 8001992:	681b      	ldr	r3, [r3, #0]
 8001994:	b2db      	uxtb	r3, r3
 8001996:	3b10      	subs	r3, #16
 8001998:	4a14      	ldr	r2, [pc, #80]	@ (80019ec <DMA_CalcBaseAndBitshift+0x64>)
 800199a:	fba2 2303 	umull	r2, r3, r2, r3
 800199e:	091b      	lsrs	r3, r3, #4
 80019a0:	60fb      	str	r3, [r7, #12]
 80019a2:	4a13      	ldr	r2, [pc, #76]	@ (80019f0 <DMA_CalcBaseAndBitshift+0x68>)
 80019a4:	68fb      	ldr	r3, [r7, #12]
 80019a6:	4413      	add	r3, r2
 80019a8:	781b      	ldrb	r3, [r3, #0]
 80019aa:	461a      	mov	r2, r3
 80019ac:	687b      	ldr	r3, [r7, #4]
 80019ae:	65da      	str	r2, [r3, #92]	@ 0x5c
 80019b0:	68fb      	ldr	r3, [r7, #12]
 80019b2:	2b03      	cmp	r3, #3
 80019b4:	d909      	bls.n	80019ca <DMA_CalcBaseAndBitshift+0x42>
 80019b6:	687b      	ldr	r3, [r7, #4]
 80019b8:	681b      	ldr	r3, [r3, #0]
 80019ba:	f423 737f 	bic.w	r3, r3, #1020	@ 0x3fc
 80019be:	f023 0303 	bic.w	r3, r3, #3
 80019c2:	1d1a      	adds	r2, r3, #4
 80019c4:	687b      	ldr	r3, [r7, #4]
 80019c6:	659a      	str	r2, [r3, #88]	@ 0x58
 80019c8:	e007      	b.n	80019da <DMA_CalcBaseAndBitshift+0x52>
 80019ca:	687b      	ldr	r3, [r7, #4]
 80019cc:	681b      	ldr	r3, [r3, #0]
 80019ce:	f423 737f 	bic.w	r3, r3, #1020	@ 0x3fc
 80019d2:	f023 0303 	bic.w	r3, r3, #3
 80019d6:	687a      	ldr	r2, [r7, #4]
 80019d8:	6593      	str	r3, [r2, #88]	@ 0x58
 80019da:	687b      	ldr	r3, [r7, #4]
 80019dc:	6d9b      	ldr	r3, [r3, #88]	@ 0x58
 80019de:	4618      	mov	r0, r3
 80019e0:	3714      	adds	r7, #20
 80019e2:	46bd      	mov	sp, r7
 80019e4:	f85d 7b04 	ldr.w	r7, [sp], #4
 80019e8:	4770      	bx	lr
 80019ea:	bf00      	nop
 80019ec:	aaaaaaab 	.word	0xaaaaaaab
 80019f0:	08003e74 	.word	0x08003e74

080019f4 <DMA_CheckFifoParam>:
 80019f4:	b480      	push	{r7}
 80019f6:	b085      	sub	sp, #20
 80019f8:	af00      	add	r7, sp, #0
 80019fa:	6078      	str	r0, [r7, #4]
 80019fc:	2300      	movs	r3, #0
 80019fe:	73fb      	strb	r3, [r7, #15]
 8001a00:	687b      	ldr	r3, [r7, #4]
 8001a02:	6a9b      	ldr	r3, [r3, #40]	@ 0x28
 8001a04:	60bb      	str	r3, [r7, #8]
 8001a06:	687b      	ldr	r3, [r7, #4]
 8001a08:	699b      	ldr	r3, [r3, #24]
 8001a0a:	2b00      	cmp	r3, #0
 8001a0c:	d11f      	bne.n	8001a4e <DMA_CheckFifoParam+0x5a>
 8001a0e:	68bb      	ldr	r3, [r7, #8]
 8001a10:	2b03      	cmp	r3, #3
 8001a12:	d856      	bhi.n	8001ac2 <DMA_CheckFifoParam+0xce>
 8001a14:	a201      	add	r2, pc, #4	@ (adr r2, 8001a1c <DMA_CheckFifoParam+0x28>)
 8001a16:	f852 f023 	ldr.w	pc, [r2, r3, lsl #2]
 8001a1a:	bf00      	nop
 8001a1c:	08001a2d 	.word	0x08001a2d
 8001a20:	08001a3f 	.word	0x08001a3f
 8001a24:	08001a2d 	.word	0x08001a2d
 8001a28:	08001ac3 	.word	0x08001ac3
 8001a2c:	687b      	ldr	r3, [r7, #4]
 8001a2e:	6adb      	ldr	r3, [r3, #44]	@ 0x2c
 8001a30:	f003 7380 	and.w	r3, r3, #16777216	@ 0x1000000
 8001a34:	2b00      	cmp	r3, #0
 8001a36:	d046      	beq.n	8001ac6 <DMA_CheckFifoParam+0xd2>
 8001a38:	2301      	movs	r3, #1
 8001a3a:	73fb      	strb	r3, [r7, #15]
 8001a3c:	e043      	b.n	8001ac6 <DMA_CheckFifoParam+0xd2>
 8001a3e:	687b      	ldr	r3, [r7, #4]
 8001a40:	6adb      	ldr	r3, [r3, #44]	@ 0x2c
 8001a42:	f1b3 7fc0 	cmp.w	r3, #25165824	@ 0x1800000
 8001a46:	d140      	bne.n	8001aca <DMA_CheckFifoParam+0xd6>
 8001a48:	2301      	movs	r3, #1
 8001a4a:	73fb      	strb	r3, [r7, #15]
 8001a4c:	e03d      	b.n	8001aca <DMA_CheckFifoParam+0xd6>
 8001a4e:	687b      	ldr	r3, [r7, #4]
 8001a50:	699b      	ldr	r3, [r3, #24]
 8001a52:	f5b3 5f00 	cmp.w	r3, #8192	@ 0x2000
 8001a56:	d121      	bne.n	8001a9c <DMA_CheckFifoParam+0xa8>
 8001a58:	68bb      	ldr	r3, [r7, #8]
 8001a5a:	2b03      	cmp	r3, #3
 8001a5c:	d837      	bhi.n	8001ace <DMA_CheckFifoParam+0xda>
 8001a5e:	a201      	add	r2, pc, #4	@ (adr r2, 8001a64 <DMA_CheckFifoParam+0x70>)
 8001a60:	f852 f023 	ldr.w	pc, [r2, r3, lsl #2]
 8001a64:	08001a75 	.word	0x08001a75
 8001a68:	08001a7b 	.word	0x08001a7b
 8001a6c:	08001a75 	.word	0x08001a75
 8001a70:	08001a8d 	.word	0x08001a8d
 8001a74:	2301      	movs	r3, #1
 8001a76:	73fb      	strb	r3, [r7, #15]
 8001a78:	e030      	b.n	8001adc <DMA_CheckFifoParam+0xe8>
 8001a7a:	687b      	ldr	r3, [r7, #4]
 8001a7c:	6adb      	ldr	r3, [r3, #44]	@ 0x2c
 8001a7e:	f003 7380 	and.w	r3, r3, #16777216	@ 0x1000000
 8001a82:	2b00      	cmp	r3, #0
 8001a84:	d025      	beq.n	8001ad2 <DMA_CheckFifoParam+0xde>
 8001a86:	2301      	movs	r3, #1
 8001a88:	73fb      	strb	r3, [r7, #15]
 8001a8a:	e022      	b.n	8001ad2 <DMA_CheckFifoParam+0xde>
 8001a8c:	687b      	ldr	r3, [r7, #4]
 8001a8e:	6adb      	ldr	r3, [r3, #44]	@ 0x2c
 8001a90:	f1b3 7fc0 	cmp.w	r3, #25165824	@ 0x1800000
 8001a94:	d11f      	bne.n	8001ad6 <DMA_CheckFifoParam+0xe2>
 8001a96:	2301      	movs	r3, #1
 8001a98:	73fb      	strb	r3, [r7, #15]
 8001a9a:	e01c      	b.n	8001ad6 <DMA_CheckFifoParam+0xe2>
 8001a9c:	68bb      	ldr	r3, [r7, #8]
 8001a9e:	2b02      	cmp	r3, #2
 8001aa0:	d903      	bls.n	8001aaa <DMA_CheckFifoParam+0xb6>
 8001aa2:	68bb      	ldr	r3, [r7, #8]
 8001aa4:	2b03      	cmp	r3, #3
 8001aa6:	d003      	beq.n	8001ab0 <DMA_CheckFifoParam+0xbc>
 8001aa8:	e018      	b.n	8001adc <DMA_CheckFifoParam+0xe8>
 8001aaa:	2301      	movs	r3, #1
 8001aac:	73fb      	strb	r3, [r7, #15]
 8001aae:	e015      	b.n	8001adc <DMA_CheckFifoParam+0xe8>
 8001ab0:	687b      	ldr	r3, [r7, #4]
 8001ab2:	6adb      	ldr	r3, [r3, #44]	@ 0x2c
 8001ab4:	f003 7380 	and.w	r3, r3, #16777216	@ 0x1000000
 8001ab8:	2b00      	cmp	r3, #0
 8001aba:	d00e      	beq.n	8001ada <DMA_CheckFifoParam+0xe6>
 8001abc:	2301      	movs	r3, #1
 8001abe:	73fb      	strb	r3, [r7, #15]
 8001ac0:	e00b      	b.n	8001ada <DMA_CheckFifoParam+0xe6>
 8001ac2:	bf00      	nop
 8001ac4:	e00a      	b.n	8001adc <DMA_CheckFifoParam+0xe8>
 8001ac6:	bf00      	nop
 8001ac8:	e008      	b.n	8001adc <DMA_CheckFifoParam+0xe8>
 8001aca:	bf00      	nop
 8001acc:	e006      	b.n	8001adc <DMA_CheckFifoParam+0xe8>
 8001ace:	bf00      	nop
 8001ad0:	e004      	b.n	8001adc <DMA_CheckFifoParam+0xe8>
 8001ad2:	bf00      	nop
 8001ad4:	e002      	b.n	8001adc <DMA_CheckFifoParam+0xe8>
 8001ad6:	bf00      	nop
 8001ad8:	e000      	b.n	8001adc <DMA_CheckFifoParam+0xe8>
 8001ada:	bf00      	nop
 8001adc:	7bfb      	ldrb	r3, [r7, #15]
 8001ade:	4618      	mov	r0, r3
 8001ae0:	3714      	adds	r7, #20
 8001ae2:	46bd      	mov	sp, r7
 8001ae4:	f85d 7b04 	ldr.w	r7, [sp], #4
 8001ae8:	4770      	bx	lr
 8001aea:	bf00      	nop

08001aec <HAL_GPIO_Init>:
 8001aec:	b480      	push	{r7}
 8001aee:	b089      	sub	sp, #36	@ 0x24
 8001af0:	af00      	add	r7, sp, #0
 8001af2:	6078      	str	r0, [r7, #4]
 8001af4:	6039      	str	r1, [r7, #0]
 8001af6:	2300      	movs	r3, #0
 8001af8:	617b      	str	r3, [r7, #20]
 8001afa:	2300      	movs	r3, #0
 8001afc:	613b      	str	r3, [r7, #16]
 8001afe:	2300      	movs	r3, #0
 8001b00:	61bb      	str	r3, [r7, #24]
 8001b02:	2300      	movs	r3, #0
 8001b04:	61fb      	str	r3, [r7, #28]
 8001b06:	e16b      	b.n	8001de0 <HAL_GPIO_Init+0x2f4>
 8001b08:	2201      	movs	r2, #1
 8001b0a:	69fb      	ldr	r3, [r7, #28]
 8001b0c:	fa02 f303 	lsl.w	r3, r2, r3
 8001b10:	617b      	str	r3, [r7, #20]
 8001b12:	683b      	ldr	r3, [r7, #0]
 8001b14:	681b      	ldr	r3, [r3, #0]
 8001b16:	697a      	ldr	r2, [r7, #20]
 8001b18:	4013      	ands	r3, r2
 8001b1a:	613b      	str	r3, [r7, #16]
 8001b1c:	693a      	ldr	r2, [r7, #16]
 8001b1e:	697b      	ldr	r3, [r7, #20]
 8001b20:	429a      	cmp	r2, r3
 8001b22:	f040 815a 	bne.w	8001dda <HAL_GPIO_Init+0x2ee>
 8001b26:	683b      	ldr	r3, [r7, #0]
 8001b28:	685b      	ldr	r3, [r3, #4]
 8001b2a:	f003 0303 	and.w	r3, r3, #3
 8001b2e:	2b01      	cmp	r3, #1
 8001b30:	d005      	beq.n	8001b3e <HAL_GPIO_Init+0x52>
 8001b32:	683b      	ldr	r3, [r7, #0]
 8001b34:	685b      	ldr	r3, [r3, #4]
 8001b36:	f003 0303 	and.w	r3, r3, #3
 8001b3a:	2b02      	cmp	r3, #2
 8001b3c:	d130      	bne.n	8001ba0 <HAL_GPIO_Init+0xb4>
 8001b3e:	687b      	ldr	r3, [r7, #4]
 8001b40:	689b      	ldr	r3, [r3, #8]
 8001b42:	61bb      	str	r3, [r7, #24]
 8001b44:	69fb      	ldr	r3, [r7, #28]
 8001b46:	005b      	lsls	r3, r3, #1
 8001b48:	2203      	movs	r2, #3
 8001b4a:	fa02 f303 	lsl.w	r3, r2, r3
 8001b4e:	43db      	mvns	r3, r3
 8001b50:	69ba      	ldr	r2, [r7, #24]
 8001b52:	4013      	ands	r3, r2
 8001b54:	61bb      	str	r3, [r7, #24]
 8001b56:	683b      	ldr	r3, [r7, #0]
 8001b58:	68da      	ldr	r2, [r3, #12]
 8001b5a:	69fb      	ldr	r3, [r7, #28]
 8001b5c:	005b      	lsls	r3, r3, #1
 8001b5e:	fa02 f303 	lsl.w	r3, r2, r3
 8001b62:	69ba      	ldr	r2, [r7, #24]
 8001b64:	4313      	orrs	r3, r2
 8001b66:	61bb      	str	r3, [r7, #24]
 8001b68:	687b      	ldr	r3, [r7, #4]
 8001b6a:	69ba      	ldr	r2, [r7, #24]
 8001b6c:	609a      	str	r2, [r3, #8]
 8001b6e:	687b      	ldr	r3, [r7, #4]
 8001b70:	685b      	ldr	r3, [r3, #4]
 8001b72:	61bb      	str	r3, [r7, #24]
 8001b74:	2201      	movs	r2, #1
 8001b76:	69fb      	ldr	r3, [r7, #28]
 8001b78:	fa02 f303 	lsl.w	r3, r2, r3
 8001b7c:	43db      	mvns	r3, r3
 8001b7e:	69ba      	ldr	r2, [r7, #24]
 8001b80:	4013      	ands	r3, r2
 8001b82:	61bb      	str	r3, [r7, #24]
 8001b84:	683b      	ldr	r3, [r7, #0]
 8001b86:	685b      	ldr	r3, [r3, #4]
 8001b88:	091b      	lsrs	r3, r3, #4
 8001b8a:	f003 0201 	and.w	r2, r3, #1
 8001b8e:	69fb      	ldr	r3, [r7, #28]
 8001b90:	fa02 f303 	lsl.w	r3, r2, r3
 8001b94:	69ba      	ldr	r2, [r7, #24]
 8001b96:	4313      	orrs	r3, r2
 8001b98:	61bb      	str	r3, [r7, #24]
 8001b9a:	687b      	ldr	r3, [r7, #4]
 8001b9c:	69ba      	ldr	r2, [r7, #24]
 8001b9e:	605a      	str	r2, [r3, #4]
 8001ba0:	683b      	ldr	r3, [r7, #0]
 8001ba2:	685b      	ldr	r3, [r3, #4]
 8001ba4:	f003 0303 	and.w	r3, r3, #3
 8001ba8:	2b03      	cmp	r3, #3
 8001baa:	d017      	beq.n	8001bdc <HAL_GPIO_Init+0xf0>
 8001bac:	687b      	ldr	r3, [r7, #4]
 8001bae:	68db      	ldr	r3, [r3, #12]
 8001bb0:	61bb      	str	r3, [r7, #24]
 8001bb2:	69fb      	ldr	r3, [r7, #28]
 8001bb4:	005b      	lsls	r3, r3, #1
 8001bb6:	2203      	movs	r2, #3
 8001bb8:	fa02 f303 	lsl.w	r3, r2, r3
 8001bbc:	43db      	mvns	r3, r3
 8001bbe:	69ba      	ldr	r2, [r7, #24]
 8001bc0:	4013      	ands	r3, r2
 8001bc2:	61bb      	str	r3, [r7, #24]
 8001bc4:	683b      	ldr	r3, [r7, #0]
 8001bc6:	689a      	ldr	r2, [r3, #8]
 8001bc8:	69fb      	ldr	r3, [r7, #28]
 8001bca:	005b      	lsls	r3, r3, #1
 8001bcc:	fa02 f303 	lsl.w	r3, r2, r3
 8001bd0:	69ba      	ldr	r2, [r7, #24]
 8001bd2:	4313      	orrs	r3, r2
 8001bd4:	61bb      	str	r3, [r7, #24]
 8001bd6:	687b      	ldr	r3, [r7, #4]
 8001bd8:	69ba      	ldr	r2, [r7, #24]
 8001bda:	60da      	str	r2, [r3, #12]
 8001bdc:	683b      	ldr	r3, [r7, #0]
 8001bde:	685b      	ldr	r3, [r3, #4]
 8001be0:	f003 0303 	and.w	r3, r3, #3
 8001be4:	2b02      	cmp	r3, #2
 8001be6:	d123      	bne.n	8001c30 <HAL_GPIO_Init+0x144>
 8001be8:	69fb      	ldr	r3, [r7, #28]
 8001bea:	08da      	lsrs	r2, r3, #3
 8001bec:	687b      	ldr	r3, [r7, #4]
 8001bee:	3208      	adds	r2, #8
 8001bf0:	f853 3022 	ldr.w	r3, [r3, r2, lsl #2]
 8001bf4:	61bb      	str	r3, [r7, #24]
 8001bf6:	69fb      	ldr	r3, [r7, #28]
 8001bf8:	f003 0307 	and.w	r3, r3, #7
 8001bfc:	009b      	lsls	r3, r3, #2
 8001bfe:	220f      	movs	r2, #15
 8001c00:	fa02 f303 	lsl.w	r3, r2, r3
 8001c04:	43db      	mvns	r3, r3
 8001c06:	69ba      	ldr	r2, [r7, #24]
 8001c08:	4013      	ands	r3, r2
 8001c0a:	61bb      	str	r3, [r7, #24]
 8001c0c:	683b      	ldr	r3, [r7, #0]
 8001c0e:	691a      	ldr	r2, [r3, #16]
 8001c10:	69fb      	ldr	r3, [r7, #28]
 8001c12:	f003 0307 	and.w	r3, r3, #7
 8001c16:	009b      	lsls	r3, r3, #2
 8001c18:	fa02 f303 	lsl.w	r3, r2, r3
 8001c1c:	69ba      	ldr	r2, [r7, #24]
 8001c1e:	4313      	orrs	r3, r2
 8001c20:	61bb      	str	r3, [r7, #24]
 8001c22:	69fb      	ldr	r3, [r7, #28]
 8001c24:	08da      	lsrs	r2, r3, #3
 8001c26:	687b      	ldr	r3, [r7, #4]
 8001c28:	3208      	adds	r2, #8
 8001c2a:	69b9      	ldr	r1, [r7, #24]
 8001c2c:	f843 1022 	str.w	r1, [r3, r2, lsl #2]
 8001c30:	687b      	ldr	r3, [r7, #4]
 8001c32:	681b      	ldr	r3, [r3, #0]
 8001c34:	61bb      	str	r3, [r7, #24]
 8001c36:	69fb      	ldr	r3, [r7, #28]
 8001c38:	005b      	lsls	r3, r3, #1
 8001c3a:	2203      	movs	r2, #3
 8001c3c:	fa02 f303 	lsl.w	r3, r2, r3
 8001c40:	43db      	mvns	r3, r3
 8001c42:	69ba      	ldr	r2, [r7, #24]
 8001c44:	4013      	ands	r3, r2
 8001c46:	61bb      	str	r3, [r7, #24]
 8001c48:	683b      	ldr	r3, [r7, #0]
 8001c4a:	685b      	ldr	r3, [r3, #4]
 8001c4c:	f003 0203 	and.w	r2, r3, #3
 8001c50:	69fb      	ldr	r3, [r7, #28]
 8001c52:	005b      	lsls	r3, r3, #1
 8001c54:	fa02 f303 	lsl.w	r3, r2, r3
 8001c58:	69ba      	ldr	r2, [r7, #24]
 8001c5a:	4313      	orrs	r3, r2
 8001c5c:	61bb      	str	r3, [r7, #24]
 8001c5e:	687b      	ldr	r3, [r7, #4]
 8001c60:	69ba      	ldr	r2, [r7, #24]
 8001c62:	601a      	str	r2, [r3, #0]
 8001c64:	683b      	ldr	r3, [r7, #0]
 8001c66:	685b      	ldr	r3, [r3, #4]
 8001c68:	f403 3340 	and.w	r3, r3, #196608	@ 0x30000
 8001c6c:	2b00      	cmp	r3, #0
 8001c6e:	f000 80b4 	beq.w	8001dda <HAL_GPIO_Init+0x2ee>
 8001c72:	2300      	movs	r3, #0
 8001c74:	60fb      	str	r3, [r7, #12]
 8001c76:	4b60      	ldr	r3, [pc, #384]	@ (8001df8 <HAL_GPIO_Init+0x30c>)
 8001c78:	6c5b      	ldr	r3, [r3, #68]	@ 0x44
 8001c7a:	4a5f      	ldr	r2, [pc, #380]	@ (8001df8 <HAL_GPIO_Init+0x30c>)
 8001c7c:	f443 4380 	orr.w	r3, r3, #16384	@ 0x4000
 8001c80:	6453      	str	r3, [r2, #68]	@ 0x44
 8001c82:	4b5d      	ldr	r3, [pc, #372]	@ (8001df8 <HAL_GPIO_Init+0x30c>)
 8001c84:	6c5b      	ldr	r3, [r3, #68]	@ 0x44
 8001c86:	f403 4380 	and.w	r3, r3, #16384	@ 0x4000
 8001c8a:	60fb      	str	r3, [r7, #12]
 8001c8c:	68fb      	ldr	r3, [r7, #12]
 8001c8e:	4a5b      	ldr	r2, [pc, #364]	@ (8001dfc <HAL_GPIO_Init+0x310>)
 8001c90:	69fb      	ldr	r3, [r7, #28]
 8001c92:	089b      	lsrs	r3, r3, #2
 8001c94:	3302      	adds	r3, #2
 8001c96:	f852 3023 	ldr.w	r3, [r2, r3, lsl #2]
 8001c9a:	61bb      	str	r3, [r7, #24]
 8001c9c:	69fb      	ldr	r3, [r7, #28]
 8001c9e:	f003 0303 	and.w	r3, r3, #3
 8001ca2:	009b      	lsls	r3, r3, #2
 8001ca4:	220f      	movs	r2, #15
 8001ca6:	fa02 f303 	lsl.w	r3, r2, r3
 8001caa:	43db      	mvns	r3, r3
 8001cac:	69ba      	ldr	r2, [r7, #24]
 8001cae:	4013      	ands	r3, r2
 8001cb0:	61bb      	str	r3, [r7, #24]
 8001cb2:	687b      	ldr	r3, [r7, #4]
 8001cb4:	4a52      	ldr	r2, [pc, #328]	@ (8001e00 <HAL_GPIO_Init+0x314>)
 8001cb6:	4293      	cmp	r3, r2
 8001cb8:	d02b      	beq.n	8001d12 <HAL_GPIO_Init+0x226>
 8001cba:	687b      	ldr	r3, [r7, #4]
 8001cbc:	4a51      	ldr	r2, [pc, #324]	@ (8001e04 <HAL_GPIO_Init+0x318>)
 8001cbe:	4293      	cmp	r3, r2
 8001cc0:	d025      	beq.n	8001d0e <HAL_GPIO_Init+0x222>
 8001cc2:	687b      	ldr	r3, [r7, #4]
 8001cc4:	4a50      	ldr	r2, [pc, #320]	@ (8001e08 <HAL_GPIO_Init+0x31c>)
 8001cc6:	4293      	cmp	r3, r2
 8001cc8:	d01f      	beq.n	8001d0a <HAL_GPIO_Init+0x21e>
 8001cca:	687b      	ldr	r3, [r7, #4]
 8001ccc:	4a4f      	ldr	r2, [pc, #316]	@ (8001e0c <HAL_GPIO_Init+0x320>)
 8001cce:	4293      	cmp	r3, r2
 8001cd0:	d019      	beq.n	8001d06 <HAL_GPIO_Init+0x21a>
 8001cd2:	687b      	ldr	r3, [r7, #4]
 8001cd4:	4a4e      	ldr	r2, [pc, #312]	@ (8001e10 <HAL_GPIO_Init+0x324>)
 8001cd6:	4293      	cmp	r3, r2
 8001cd8:	d013      	beq.n	8001d02 <HAL_GPIO_Init+0x216>
 8001cda:	687b      	ldr	r3, [r7, #4]
 8001cdc:	4a4d      	ldr	r2, [pc, #308]	@ (8001e14 <HAL_GPIO_Init+0x328>)
 8001cde:	4293      	cmp	r3, r2
 8001ce0:	d00d      	beq.n	8001cfe <HAL_GPIO_Init+0x212>
 8001ce2:	687b      	ldr	r3, [r7, #4]
 8001ce4:	4a4c      	ldr	r2, [pc, #304]	@ (8001e18 <HAL_GPIO_Init+0x32c>)
 8001ce6:	4293      	cmp	r3, r2
 8001ce8:	d007      	beq.n	8001cfa <HAL_GPIO_Init+0x20e>
 8001cea:	687b      	ldr	r3, [r7, #4]
 8001cec:	4a4b      	ldr	r2, [pc, #300]	@ (8001e1c <HAL_GPIO_Init+0x330>)
 8001cee:	4293      	cmp	r3, r2
 8001cf0:	d101      	bne.n	8001cf6 <HAL_GPIO_Init+0x20a>
 8001cf2:	2307      	movs	r3, #7
 8001cf4:	e00e      	b.n	8001d14 <HAL_GPIO_Init+0x228>
 8001cf6:	2308      	movs	r3, #8
 8001cf8:	e00c      	b.n	8001d14 <HAL_GPIO_Init+0x228>
 8001cfa:	2306      	movs	r3, #6
 8001cfc:	e00a      	b.n	8001d14 <HAL_GPIO_Init+0x228>
 8001cfe:	2305      	movs	r3, #5
 8001d00:	e008      	b.n	8001d14 <HAL_GPIO_Init+0x228>
 8001d02:	2304      	movs	r3, #4
 8001d04:	e006      	b.n	8001d14 <HAL_GPIO_Init+0x228>
 8001d06:	2303      	movs	r3, #3
 8001d08:	e004      	b.n	8001d14 <HAL_GPIO_Init+0x228>
 8001d0a:	2302      	movs	r3, #2
 8001d0c:	e002      	b.n	8001d14 <HAL_GPIO_Init+0x228>
 8001d0e:	2301      	movs	r3, #1
 8001d10:	e000      	b.n	8001d14 <HAL_GPIO_Init+0x228>
 8001d12:	2300      	movs	r3, #0
 8001d14:	69fa      	ldr	r2, [r7, #28]
 8001d16:	f002 0203 	and.w	r2, r2, #3
 8001d1a:	0092      	lsls	r2, r2, #2
 8001d1c:	4093      	lsls	r3, r2
 8001d1e:	69ba      	ldr	r2, [r7, #24]
 8001d20:	4313      	orrs	r3, r2
 8001d22:	61bb      	str	r3, [r7, #24]
 8001d24:	4935      	ldr	r1, [pc, #212]	@ (8001dfc <HAL_GPIO_Init+0x310>)
 8001d26:	69fb      	ldr	r3, [r7, #28]
 8001d28:	089b      	lsrs	r3, r3, #2
 8001d2a:	3302      	adds	r3, #2
 8001d2c:	69ba      	ldr	r2, [r7, #24]
 8001d2e:	f841 2023 	str.w	r2, [r1, r3, lsl #2]
 8001d32:	4b3b      	ldr	r3, [pc, #236]	@ (8001e20 <HAL_GPIO_Init+0x334>)
 8001d34:	689b      	ldr	r3, [r3, #8]
 8001d36:	61bb      	str	r3, [r7, #24]
 8001d38:	693b      	ldr	r3, [r7, #16]
 8001d3a:	43db      	mvns	r3, r3
 8001d3c:	69ba      	ldr	r2, [r7, #24]
 8001d3e:	4013      	ands	r3, r2
 8001d40:	61bb      	str	r3, [r7, #24]
 8001d42:	683b      	ldr	r3, [r7, #0]
 8001d44:	685b      	ldr	r3, [r3, #4]
 8001d46:	f403 1380 	and.w	r3, r3, #1048576	@ 0x100000
 8001d4a:	2b00      	cmp	r3, #0
 8001d4c:	d003      	beq.n	8001d56 <HAL_GPIO_Init+0x26a>
 8001d4e:	69ba      	ldr	r2, [r7, #24]
 8001d50:	693b      	ldr	r3, [r7, #16]
 8001d52:	4313      	orrs	r3, r2
 8001d54:	61bb      	str	r3, [r7, #24]
 8001d56:	4a32      	ldr	r2, [pc, #200]	@ (8001e20 <HAL_GPIO_Init+0x334>)
 8001d58:	69bb      	ldr	r3, [r7, #24]
 8001d5a:	6093      	str	r3, [r2, #8]
 8001d5c:	4b30      	ldr	r3, [pc, #192]	@ (8001e20 <HAL_GPIO_Init+0x334>)
 8001d5e:	68db      	ldr	r3, [r3, #12]
 8001d60:	61bb      	str	r3, [r7, #24]
 8001d62:	693b      	ldr	r3, [r7, #16]
 8001d64:	43db      	mvns	r3, r3
 8001d66:	69ba      	ldr	r2, [r7, #24]
 8001d68:	4013      	ands	r3, r2
 8001d6a:	61bb      	str	r3, [r7, #24]
 8001d6c:	683b      	ldr	r3, [r7, #0]
 8001d6e:	685b      	ldr	r3, [r3, #4]
 8001d70:	f403 1300 	and.w	r3, r3, #2097152	@ 0x200000
 8001d74:	2b00      	cmp	r3, #0
 8001d76:	d003      	beq.n	8001d80 <HAL_GPIO_Init+0x294>
 8001d78:	69ba      	ldr	r2, [r7, #24]
 8001d7a:	693b      	ldr	r3, [r7, #16]
 8001d7c:	4313      	orrs	r3, r2
 8001d7e:	61bb      	str	r3, [r7, #24]
 8001d80:	4a27      	ldr	r2, [pc, #156]	@ (8001e20 <HAL_GPIO_Init+0x334>)
 8001d82:	69bb      	ldr	r3, [r7, #24]
 8001d84:	60d3      	str	r3, [r2, #12]
 8001d86:	4b26      	ldr	r3, [pc, #152]	@ (8001e20 <HAL_GPIO_Init+0x334>)
 8001d88:	685b      	ldr	r3, [r3, #4]
 8001d8a:	61bb      	str	r3, [r7, #24]
 8001d8c:	693b      	ldr	r3, [r7, #16]
 8001d8e:	43db      	mvns	r3, r3
 8001d90:	69ba      	ldr	r2, [r7, #24]
 8001d92:	4013      	ands	r3, r2
 8001d94:	61bb      	str	r3, [r7, #24]
 8001d96:	683b      	ldr	r3, [r7, #0]
 8001d98:	685b      	ldr	r3, [r3, #4]
 8001d9a:	f403 3300 	and.w	r3, r3, #131072	@ 0x20000
 8001d9e:	2b00      	cmp	r3, #0
 8001da0:	d003      	beq.n	8001daa <HAL_GPIO_Init+0x2be>
 8001da2:	69ba      	ldr	r2, [r7, #24]
 8001da4:	693b      	ldr	r3, [r7, #16]
 8001da6:	4313      	orrs	r3, r2
 8001da8:	61bb      	str	r3, [r7, #24]
 8001daa:	4a1d      	ldr	r2, [pc, #116]	@ (8001e20 <HAL_GPIO_Init+0x334>)
 8001dac:	69bb      	ldr	r3, [r7, #24]
 8001dae:	6053      	str	r3, [r2, #4]
 8001db0:	4b1b      	ldr	r3, [pc, #108]	@ (8001e20 <HAL_GPIO_Init+0x334>)
 8001db2:	681b      	ldr	r3, [r3, #0]
 8001db4:	61bb      	str	r3, [r7, #24]
 8001db6:	693b      	ldr	r3, [r7, #16]
 8001db8:	43db      	mvns	r3, r3
 8001dba:	69ba      	ldr	r2, [r7, #24]
 8001dbc:	4013      	ands	r3, r2
 8001dbe:	61bb      	str	r3, [r7, #24]
 8001dc0:	683b      	ldr	r3, [r7, #0]
 8001dc2:	685b      	ldr	r3, [r3, #4]
 8001dc4:	f403 3380 	and.w	r3, r3, #65536	@ 0x10000
 8001dc8:	2b00      	cmp	r3, #0
 8001dca:	d003      	beq.n	8001dd4 <HAL_GPIO_Init+0x2e8>
 8001dcc:	69ba      	ldr	r2, [r7, #24]
 8001dce:	693b      	ldr	r3, [r7, #16]
 8001dd0:	4313      	orrs	r3, r2
 8001dd2:	61bb      	str	r3, [r7, #24]
 8001dd4:	4a12      	ldr	r2, [pc, #72]	@ (8001e20 <HAL_GPIO_Init+0x334>)
 8001dd6:	69bb      	ldr	r3, [r7, #24]
 8001dd8:	6013      	str	r3, [r2, #0]
 8001dda:	69fb      	ldr	r3, [r7, #28]
 8001ddc:	3301      	adds	r3, #1
 8001dde:	61fb      	str	r3, [r7, #28]
 8001de0:	69fb      	ldr	r3, [r7, #28]
 8001de2:	2b0f      	cmp	r3, #15
 8001de4:	f67f ae90 	bls.w	8001b08 <HAL_GPIO_Init+0x1c>
 8001de8:	bf00      	nop
 8001dea:	bf00      	nop
 8001dec:	3724      	adds	r7, #36	@ 0x24
 8001dee:	46bd      	mov	sp, r7
 8001df0:	f85d 7b04 	ldr.w	r7, [sp], #4
 8001df4:	4770      	bx	lr
 8001df6:	bf00      	nop
 8001df8:	40023800 	.word	0x40023800
 8001dfc:	40013800 	.word	0x40013800
 8001e00:	40020000 	.word	0x40020000
 8001e04:	40020400 	.word	0x40020400
 8001e08:	40020800 	.word	0x40020800
 8001e0c:	40020c00 	.word	0x40020c00
 8001e10:	40021000 	.word	0x40021000
 8001e14:	40021400 	.word	0x40021400
 8001e18:	40021800 	.word	0x40021800
 8001e1c:	40021c00 	.word	0x40021c00
 8001e20:	40013c00 	.word	0x40013c00

08001e24 <HAL_GPIO_WritePin>:
 8001e24:	b480      	push	{r7}
 8001e26:	b083      	sub	sp, #12
 8001e28:	af00      	add	r7, sp, #0
 8001e2a:	6078      	str	r0, [r7, #4]
 8001e2c:	460b      	mov	r3, r1
 8001e2e:	807b      	strh	r3, [r7, #2]
 8001e30:	4613      	mov	r3, r2
 8001e32:	707b      	strb	r3, [r7, #1]
 8001e34:	787b      	ldrb	r3, [r7, #1]
 8001e36:	2b00      	cmp	r3, #0
 8001e38:	d003      	beq.n	8001e42 <HAL_GPIO_WritePin+0x1e>
 8001e3a:	887a      	ldrh	r2, [r7, #2]
 8001e3c:	687b      	ldr	r3, [r7, #4]
 8001e3e:	619a      	str	r2, [r3, #24]
 8001e40:	e003      	b.n	8001e4a <HAL_GPIO_WritePin+0x26>
 8001e42:	887b      	ldrh	r3, [r7, #2]
 8001e44:	041a      	lsls	r2, r3, #16
 8001e46:	687b      	ldr	r3, [r7, #4]
 8001e48:	619a      	str	r2, [r3, #24]
 8001e4a:	bf00      	nop
 8001e4c:	370c      	adds	r7, #12
 8001e4e:	46bd      	mov	sp, r7
 8001e50:	f85d 7b04 	ldr.w	r7, [sp], #4
 8001e54:	4770      	bx	lr
	...

08001e58 <HAL_I2C_Init>:
 8001e58:	b580      	push	{r7, lr}
 8001e5a:	b084      	sub	sp, #16
 8001e5c:	af00      	add	r7, sp, #0
 8001e5e:	6078      	str	r0, [r7, #4]
 8001e60:	687b      	ldr	r3, [r7, #4]
 8001e62:	2b00      	cmp	r3, #0
 8001e64:	d101      	bne.n	8001e6a <HAL_I2C_Init+0x12>
 8001e66:	2301      	movs	r3, #1
 8001e68:	e12b      	b.n	80020c2 <HAL_I2C_Init+0x26a>
 8001e6a:	687b      	ldr	r3, [r7, #4]
 8001e6c:	f893 303d 	ldrb.w	r3, [r3, #61]	@ 0x3d
 8001e70:	b2db      	uxtb	r3, r3
 8001e72:	2b00      	cmp	r3, #0
 8001e74:	d106      	bne.n	8001e84 <HAL_I2C_Init+0x2c>
 8001e76:	687b      	ldr	r3, [r7, #4]
 8001e78:	2200      	movs	r2, #0
 8001e7a:	f883 203c 	strb.w	r2, [r3, #60]	@ 0x3c
 8001e7e:	6878      	ldr	r0, [r7, #4]
 8001e80:	f7fe ffa0 	bl	8000dc4 <HAL_I2C_MspInit>
 8001e84:	687b      	ldr	r3, [r7, #4]
 8001e86:	2224      	movs	r2, #36	@ 0x24
 8001e88:	f883 203d 	strb.w	r2, [r3, #61]	@ 0x3d
 8001e8c:	687b      	ldr	r3, [r7, #4]
 8001e8e:	681b      	ldr	r3, [r3, #0]
 8001e90:	681a      	ldr	r2, [r3, #0]
 8001e92:	687b      	ldr	r3, [r7, #4]
 8001e94:	681b      	ldr	r3, [r3, #0]
 8001e96:	f022 0201 	bic.w	r2, r2, #1
 8001e9a:	601a      	str	r2, [r3, #0]
 8001e9c:	687b      	ldr	r3, [r7, #4]
 8001e9e:	681b      	ldr	r3, [r3, #0]
 8001ea0:	681a      	ldr	r2, [r3, #0]
 8001ea2:	687b      	ldr	r3, [r7, #4]
 8001ea4:	681b      	ldr	r3, [r3, #0]
 8001ea6:	f442 4200 	orr.w	r2, r2, #32768	@ 0x8000
 8001eaa:	601a      	str	r2, [r3, #0]
 8001eac:	687b      	ldr	r3, [r7, #4]
 8001eae:	681b      	ldr	r3, [r3, #0]
 8001eb0:	681a      	ldr	r2, [r3, #0]
 8001eb2:	687b      	ldr	r3, [r7, #4]
 8001eb4:	681b      	ldr	r3, [r3, #0]
 8001eb6:	f422 4200 	bic.w	r2, r2, #32768	@ 0x8000
 8001eba:	601a      	str	r2, [r3, #0]
 8001ebc:	f001 fe40 	bl	8003b40 <HAL_RCC_GetPCLK1Freq>
 8001ec0:	60f8      	str	r0, [r7, #12]
 8001ec2:	687b      	ldr	r3, [r7, #4]
 8001ec4:	685b      	ldr	r3, [r3, #4]
 8001ec6:	4a81      	ldr	r2, [pc, #516]	@ (80020cc <HAL_I2C_Init+0x274>)
 8001ec8:	4293      	cmp	r3, r2
 8001eca:	d807      	bhi.n	8001edc <HAL_I2C_Init+0x84>
 8001ecc:	68fb      	ldr	r3, [r7, #12]
 8001ece:	4a80      	ldr	r2, [pc, #512]	@ (80020d0 <HAL_I2C_Init+0x278>)
 8001ed0:	4293      	cmp	r3, r2
 8001ed2:	bf94      	ite	ls
 8001ed4:	2301      	movls	r3, #1
 8001ed6:	2300      	movhi	r3, #0
 8001ed8:	b2db      	uxtb	r3, r3
 8001eda:	e006      	b.n	8001eea <HAL_I2C_Init+0x92>
 8001edc:	68fb      	ldr	r3, [r7, #12]
 8001ede:	4a7d      	ldr	r2, [pc, #500]	@ (80020d4 <HAL_I2C_Init+0x27c>)
 8001ee0:	4293      	cmp	r3, r2
 8001ee2:	bf94      	ite	ls
 8001ee4:	2301      	movls	r3, #1
 8001ee6:	2300      	movhi	r3, #0
 8001ee8:	b2db      	uxtb	r3, r3
 8001eea:	2b00      	cmp	r3, #0
 8001eec:	d001      	beq.n	8001ef2 <HAL_I2C_Init+0x9a>
 8001eee:	2301      	movs	r3, #1
 8001ef0:	e0e7      	b.n	80020c2 <HAL_I2C_Init+0x26a>
 8001ef2:	68fb      	ldr	r3, [r7, #12]
 8001ef4:	4a78      	ldr	r2, [pc, #480]	@ (80020d8 <HAL_I2C_Init+0x280>)
 8001ef6:	fba2 2303 	umull	r2, r3, r2, r3
 8001efa:	0c9b      	lsrs	r3, r3, #18
 8001efc:	60bb      	str	r3, [r7, #8]
 8001efe:	687b      	ldr	r3, [r7, #4]
 8001f00:	681b      	ldr	r3, [r3, #0]
 8001f02:	685b      	ldr	r3, [r3, #4]
 8001f04:	f023 013f 	bic.w	r1, r3, #63	@ 0x3f
 8001f08:	687b      	ldr	r3, [r7, #4]
 8001f0a:	681b      	ldr	r3, [r3, #0]
 8001f0c:	68ba      	ldr	r2, [r7, #8]
 8001f0e:	430a      	orrs	r2, r1
 8001f10:	605a      	str	r2, [r3, #4]
 8001f12:	687b      	ldr	r3, [r7, #4]
 8001f14:	681b      	ldr	r3, [r3, #0]
 8001f16:	6a1b      	ldr	r3, [r3, #32]
 8001f18:	f023 013f 	bic.w	r1, r3, #63	@ 0x3f
 8001f1c:	687b      	ldr	r3, [r7, #4]
 8001f1e:	685b      	ldr	r3, [r3, #4]
 8001f20:	4a6a      	ldr	r2, [pc, #424]	@ (80020cc <HAL_I2C_Init+0x274>)
 8001f22:	4293      	cmp	r3, r2
 8001f24:	d802      	bhi.n	8001f2c <HAL_I2C_Init+0xd4>
 8001f26:	68bb      	ldr	r3, [r7, #8]
 8001f28:	3301      	adds	r3, #1
 8001f2a:	e009      	b.n	8001f40 <HAL_I2C_Init+0xe8>
 8001f2c:	68bb      	ldr	r3, [r7, #8]
 8001f2e:	f44f 7296 	mov.w	r2, #300	@ 0x12c
 8001f32:	fb02 f303 	mul.w	r3, r2, r3
 8001f36:	4a69      	ldr	r2, [pc, #420]	@ (80020dc <HAL_I2C_Init+0x284>)
 8001f38:	fba2 2303 	umull	r2, r3, r2, r3
 8001f3c:	099b      	lsrs	r3, r3, #6
 8001f3e:	3301      	adds	r3, #1
 8001f40:	687a      	ldr	r2, [r7, #4]
 8001f42:	6812      	ldr	r2, [r2, #0]
 8001f44:	430b      	orrs	r3, r1
 8001f46:	6213      	str	r3, [r2, #32]
 8001f48:	687b      	ldr	r3, [r7, #4]
 8001f4a:	681b      	ldr	r3, [r3, #0]
 8001f4c:	69db      	ldr	r3, [r3, #28]
 8001f4e:	f423 424f 	bic.w	r2, r3, #52992	@ 0xcf00
 8001f52:	f022 02ff 	bic.w	r2, r2, #255	@ 0xff
 8001f56:	687b      	ldr	r3, [r7, #4]
 8001f58:	685b      	ldr	r3, [r3, #4]
 8001f5a:	495c      	ldr	r1, [pc, #368]	@ (80020cc <HAL_I2C_Init+0x274>)
 8001f5c:	428b      	cmp	r3, r1
 8001f5e:	d819      	bhi.n	8001f94 <HAL_I2C_Init+0x13c>
 8001f60:	68fb      	ldr	r3, [r7, #12]
 8001f62:	1e59      	subs	r1, r3, #1
 8001f64:	687b      	ldr	r3, [r7, #4]
 8001f66:	685b      	ldr	r3, [r3, #4]
 8001f68:	005b      	lsls	r3, r3, #1
 8001f6a:	fbb1 f3f3 	udiv	r3, r1, r3
 8001f6e:	1c59      	adds	r1, r3, #1
 8001f70:	f640 73fc 	movw	r3, #4092	@ 0xffc
 8001f74:	400b      	ands	r3, r1
 8001f76:	2b00      	cmp	r3, #0
 8001f78:	d00a      	beq.n	8001f90 <HAL_I2C_Init+0x138>
 8001f7a:	68fb      	ldr	r3, [r7, #12]
 8001f7c:	1e59      	subs	r1, r3, #1
 8001f7e:	687b      	ldr	r3, [r7, #4]
 8001f80:	685b      	ldr	r3, [r3, #4]
 8001f82:	005b      	lsls	r3, r3, #1
 8001f84:	fbb1 f3f3 	udiv	r3, r1, r3
 8001f88:	3301      	adds	r3, #1
 8001f8a:	f3c3 030b 	ubfx	r3, r3, #0, #12
 8001f8e:	e051      	b.n	8002034 <HAL_I2C_Init+0x1dc>
 8001f90:	2304      	movs	r3, #4
 8001f92:	e04f      	b.n	8002034 <HAL_I2C_Init+0x1dc>
 8001f94:	687b      	ldr	r3, [r7, #4]
 8001f96:	689b      	ldr	r3, [r3, #8]
 8001f98:	2b00      	cmp	r3, #0
 8001f9a:	d111      	bne.n	8001fc0 <HAL_I2C_Init+0x168>
 8001f9c:	68fb      	ldr	r3, [r7, #12]
 8001f9e:	1e58      	subs	r0, r3, #1
 8001fa0:	687b      	ldr	r3, [r7, #4]
 8001fa2:	6859      	ldr	r1, [r3, #4]
 8001fa4:	460b      	mov	r3, r1
 8001fa6:	005b      	lsls	r3, r3, #1
 8001fa8:	440b      	add	r3, r1
 8001faa:	fbb0 f3f3 	udiv	r3, r0, r3
 8001fae:	3301      	adds	r3, #1
 8001fb0:	f3c3 030b 	ubfx	r3, r3, #0, #12
 8001fb4:	2b00      	cmp	r3, #0
 8001fb6:	bf0c      	ite	eq
 8001fb8:	2301      	moveq	r3, #1
 8001fba:	2300      	movne	r3, #0
 8001fbc:	b2db      	uxtb	r3, r3
 8001fbe:	e012      	b.n	8001fe6 <HAL_I2C_Init+0x18e>
 8001fc0:	68fb      	ldr	r3, [r7, #12]
 8001fc2:	1e58      	subs	r0, r3, #1
 8001fc4:	687b      	ldr	r3, [r7, #4]
 8001fc6:	6859      	ldr	r1, [r3, #4]
 8001fc8:	460b      	mov	r3, r1
 8001fca:	009b      	lsls	r3, r3, #2
 8001fcc:	440b      	add	r3, r1
 8001fce:	0099      	lsls	r1, r3, #2
 8001fd0:	440b      	add	r3, r1
 8001fd2:	fbb0 f3f3 	udiv	r3, r0, r3
 8001fd6:	3301      	adds	r3, #1
 8001fd8:	f3c3 030b 	ubfx	r3, r3, #0, #12
 8001fdc:	2b00      	cmp	r3, #0
 8001fde:	bf0c      	ite	eq
 8001fe0:	2301      	moveq	r3, #1
 8001fe2:	2300      	movne	r3, #0
 8001fe4:	b2db      	uxtb	r3, r3
 8001fe6:	2b00      	cmp	r3, #0
 8001fe8:	d001      	beq.n	8001fee <HAL_I2C_Init+0x196>
 8001fea:	2301      	movs	r3, #1
 8001fec:	e022      	b.n	8002034 <HAL_I2C_Init+0x1dc>
 8001fee:	687b      	ldr	r3, [r7, #4]
 8001ff0:	689b      	ldr	r3, [r3, #8]
 8001ff2:	2b00      	cmp	r3, #0
 8001ff4:	d10e      	bne.n	8002014 <HAL_I2C_Init+0x1bc>
 8001ff6:	68fb      	ldr	r3, [r7, #12]
 8001ff8:	1e58      	subs	r0, r3, #1
 8001ffa:	687b      	ldr	r3, [r7, #4]
 8001ffc:	6859      	ldr	r1, [r3, #4]
 8001ffe:	460b      	mov	r3, r1
 8002000:	005b      	lsls	r3, r3, #1
 8002002:	440b      	add	r3, r1
 8002004:	fbb0 f3f3 	udiv	r3, r0, r3
 8002008:	3301      	adds	r3, #1
 800200a:	f3c3 030b 	ubfx	r3, r3, #0, #12
 800200e:	f443 4300 	orr.w	r3, r3, #32768	@ 0x8000
 8002012:	e00f      	b.n	8002034 <HAL_I2C_Init+0x1dc>
 8002014:	68fb      	ldr	r3, [r7, #12]
 8002016:	1e58      	subs	r0, r3, #1
 8002018:	687b      	ldr	r3, [r7, #4]
 800201a:	6859      	ldr	r1, [r3, #4]
 800201c:	460b      	mov	r3, r1
 800201e:	009b      	lsls	r3, r3, #2
 8002020:	440b      	add	r3, r1
 8002022:	0099      	lsls	r1, r3, #2
 8002024:	440b      	add	r3, r1
 8002026:	fbb0 f3f3 	udiv	r3, r0, r3
 800202a:	3301      	adds	r3, #1
 800202c:	f3c3 030b 	ubfx	r3, r3, #0, #12
 8002030:	f443 4340 	orr.w	r3, r3, #49152	@ 0xc000
 8002034:	6879      	ldr	r1, [r7, #4]
 8002036:	6809      	ldr	r1, [r1, #0]
 8002038:	4313      	orrs	r3, r2
 800203a:	61cb      	str	r3, [r1, #28]
 800203c:	687b      	ldr	r3, [r7, #4]
 800203e:	681b      	ldr	r3, [r3, #0]
 8002040:	681b      	ldr	r3, [r3, #0]
 8002042:	f023 01c0 	bic.w	r1, r3, #192	@ 0xc0
 8002046:	687b      	ldr	r3, [r7, #4]
 8002048:	69da      	ldr	r2, [r3, #28]
 800204a:	687b      	ldr	r3, [r7, #4]
 800204c:	6a1b      	ldr	r3, [r3, #32]
 800204e:	431a      	orrs	r2, r3
 8002050:	687b      	ldr	r3, [r7, #4]
 8002052:	681b      	ldr	r3, [r3, #0]
 8002054:	430a      	orrs	r2, r1
 8002056:	601a      	str	r2, [r3, #0]
 8002058:	687b      	ldr	r3, [r7, #4]
 800205a:	681b      	ldr	r3, [r3, #0]
 800205c:	689b      	ldr	r3, [r3, #8]
 800205e:	f423 4303 	bic.w	r3, r3, #33536	@ 0x8300
 8002062:	f023 03ff 	bic.w	r3, r3, #255	@ 0xff
 8002066:	687a      	ldr	r2, [r7, #4]
 8002068:	6911      	ldr	r1, [r2, #16]
 800206a:	687a      	ldr	r2, [r7, #4]
 800206c:	68d2      	ldr	r2, [r2, #12]
 800206e:	4311      	orrs	r1, r2
 8002070:	687a      	ldr	r2, [r7, #4]
 8002072:	6812      	ldr	r2, [r2, #0]
 8002074:	430b      	orrs	r3, r1
 8002076:	6093      	str	r3, [r2, #8]
 8002078:	687b      	ldr	r3, [r7, #4]
 800207a:	681b      	ldr	r3, [r3, #0]
 800207c:	68db      	ldr	r3, [r3, #12]
 800207e:	f023 01ff 	bic.w	r1, r3, #255	@ 0xff
 8002082:	687b      	ldr	r3, [r7, #4]
 8002084:	695a      	ldr	r2, [r3, #20]
 8002086:	687b      	ldr	r3, [r7, #4]
 8002088:	699b      	ldr	r3, [r3, #24]
 800208a:	431a      	orrs	r2, r3
 800208c:	687b      	ldr	r3, [r7, #4]
 800208e:	681b      	ldr	r3, [r3, #0]
 8002090:	430a      	orrs	r2, r1
 8002092:	60da      	str	r2, [r3, #12]
 8002094:	687b      	ldr	r3, [r7, #4]
 8002096:	681b      	ldr	r3, [r3, #0]
 8002098:	681a      	ldr	r2, [r3, #0]
 800209a:	687b      	ldr	r3, [r7, #4]
 800209c:	681b      	ldr	r3, [r3, #0]
 800209e:	f042 0201 	orr.w	r2, r2, #1
 80020a2:	601a      	str	r2, [r3, #0]
 80020a4:	687b      	ldr	r3, [r7, #4]
 80020a6:	2200      	movs	r2, #0
 80020a8:	641a      	str	r2, [r3, #64]	@ 0x40
 80020aa:	687b      	ldr	r3, [r7, #4]
 80020ac:	2220      	movs	r2, #32
 80020ae:	f883 203d 	strb.w	r2, [r3, #61]	@ 0x3d
 80020b2:	687b      	ldr	r3, [r7, #4]
 80020b4:	2200      	movs	r2, #0
 80020b6:	631a      	str	r2, [r3, #48]	@ 0x30
 80020b8:	687b      	ldr	r3, [r7, #4]
 80020ba:	2200      	movs	r2, #0
 80020bc:	f883 203e 	strb.w	r2, [r3, #62]	@ 0x3e
 80020c0:	2300      	movs	r3, #0
 80020c2:	4618      	mov	r0, r3
 80020c4:	3710      	adds	r7, #16
 80020c6:	46bd      	mov	sp, r7
 80020c8:	bd80      	pop	{r7, pc}
 80020ca:	bf00      	nop
 80020cc:	000186a0 	.word	0x000186a0
 80020d0:	001e847f 	.word	0x001e847f
 80020d4:	003d08ff 	.word	0x003d08ff
 80020d8:	431bde83 	.word	0x431bde83
 80020dc:	10624dd3 	.word	0x10624dd3

080020e0 <HAL_I2C_Master_Transmit>:
 80020e0:	b580      	push	{r7, lr}
 80020e2:	b088      	sub	sp, #32
 80020e4:	af02      	add	r7, sp, #8
 80020e6:	60f8      	str	r0, [r7, #12]
 80020e8:	607a      	str	r2, [r7, #4]
 80020ea:	461a      	mov	r2, r3
 80020ec:	460b      	mov	r3, r1
 80020ee:	817b      	strh	r3, [r7, #10]
 80020f0:	4613      	mov	r3, r2
 80020f2:	813b      	strh	r3, [r7, #8]
 80020f4:	f7ff f848 	bl	8001188 <HAL_GetTick>
 80020f8:	6178      	str	r0, [r7, #20]
 80020fa:	68fb      	ldr	r3, [r7, #12]
 80020fc:	f893 303d 	ldrb.w	r3, [r3, #61]	@ 0x3d
 8002100:	b2db      	uxtb	r3, r3
 8002102:	2b20      	cmp	r3, #32
 8002104:	f040 80e0 	bne.w	80022c8 <HAL_I2C_Master_Transmit+0x1e8>
 8002108:	697b      	ldr	r3, [r7, #20]
 800210a:	9300      	str	r3, [sp, #0]
 800210c:	2319      	movs	r3, #25
 800210e:	2201      	movs	r2, #1
 8002110:	4970      	ldr	r1, [pc, #448]	@ (80022d4 <HAL_I2C_Master_Transmit+0x1f4>)
 8002112:	68f8      	ldr	r0, [r7, #12]
 8002114:	f000 f964 	bl	80023e0 <I2C_WaitOnFlagUntilTimeout>
 8002118:	4603      	mov	r3, r0
 800211a:	2b00      	cmp	r3, #0
 800211c:	d001      	beq.n	8002122 <HAL_I2C_Master_Transmit+0x42>
 800211e:	2302      	movs	r3, #2
 8002120:	e0d3      	b.n	80022ca <HAL_I2C_Master_Transmit+0x1ea>
 8002122:	68fb      	ldr	r3, [r7, #12]
 8002124:	f893 303c 	ldrb.w	r3, [r3, #60]	@ 0x3c
 8002128:	2b01      	cmp	r3, #1
 800212a:	d101      	bne.n	8002130 <HAL_I2C_Master_Transmit+0x50>
 800212c:	2302      	movs	r3, #2
 800212e:	e0cc      	b.n	80022ca <HAL_I2C_Master_Transmit+0x1ea>
 8002130:	68fb      	ldr	r3, [r7, #12]
 8002132:	2201      	movs	r2, #1
 8002134:	f883 203c 	strb.w	r2, [r3, #60]	@ 0x3c
 8002138:	68fb      	ldr	r3, [r7, #12]
 800213a:	681b      	ldr	r3, [r3, #0]
 800213c:	681b      	ldr	r3, [r3, #0]
 800213e:	f003 0301 	and.w	r3, r3, #1
 8002142:	2b01      	cmp	r3, #1
 8002144:	d007      	beq.n	8002156 <HAL_I2C_Master_Transmit+0x76>
 8002146:	68fb      	ldr	r3, [r7, #12]
 8002148:	681b      	ldr	r3, [r3, #0]
 800214a:	681a      	ldr	r2, [r3, #0]
 800214c:	68fb      	ldr	r3, [r7, #12]
 800214e:	681b      	ldr	r3, [r3, #0]
 8002150:	f042 0201 	orr.w	r2, r2, #1
 8002154:	601a      	str	r2, [r3, #0]
 8002156:	68fb      	ldr	r3, [r7, #12]
 8002158:	681b      	ldr	r3, [r3, #0]
 800215a:	681a      	ldr	r2, [r3, #0]
 800215c:	68fb      	ldr	r3, [r7, #12]
 800215e:	681b      	ldr	r3, [r3, #0]
 8002160:	f422 6200 	bic.w	r2, r2, #2048	@ 0x800
 8002164:	601a      	str	r2, [r3, #0]
 8002166:	68fb      	ldr	r3, [r7, #12]
 8002168:	2221      	movs	r2, #33	@ 0x21
 800216a:	f883 203d 	strb.w	r2, [r3, #61]	@ 0x3d
 800216e:	68fb      	ldr	r3, [r7, #12]
 8002170:	2210      	movs	r2, #16
 8002172:	f883 203e 	strb.w	r2, [r3, #62]	@ 0x3e
 8002176:	68fb      	ldr	r3, [r7, #12]
 8002178:	2200      	movs	r2, #0
 800217a:	641a      	str	r2, [r3, #64]	@ 0x40
 800217c:	68fb      	ldr	r3, [r7, #12]
 800217e:	687a      	ldr	r2, [r7, #4]
 8002180:	625a      	str	r2, [r3, #36]	@ 0x24
 8002182:	68fb      	ldr	r3, [r7, #12]
 8002184:	893a      	ldrh	r2, [r7, #8]
 8002186:	855a      	strh	r2, [r3, #42]	@ 0x2a
 8002188:	68fb      	ldr	r3, [r7, #12]
 800218a:	8d5b      	ldrh	r3, [r3, #42]	@ 0x2a
 800218c:	b29a      	uxth	r2, r3
 800218e:	68fb      	ldr	r3, [r7, #12]
 8002190:	851a      	strh	r2, [r3, #40]	@ 0x28
 8002192:	68fb      	ldr	r3, [r7, #12]
 8002194:	4a50      	ldr	r2, [pc, #320]	@ (80022d8 <HAL_I2C_Master_Transmit+0x1f8>)
 8002196:	62da      	str	r2, [r3, #44]	@ 0x2c
 8002198:	8979      	ldrh	r1, [r7, #10]
 800219a:	697b      	ldr	r3, [r7, #20]
 800219c:	6a3a      	ldr	r2, [r7, #32]
 800219e:	68f8      	ldr	r0, [r7, #12]
 80021a0:	f000 f89c 	bl	80022dc <I2C_MasterRequestWrite>
 80021a4:	4603      	mov	r3, r0
 80021a6:	2b00      	cmp	r3, #0
 80021a8:	d001      	beq.n	80021ae <HAL_I2C_Master_Transmit+0xce>
 80021aa:	2301      	movs	r3, #1
 80021ac:	e08d      	b.n	80022ca <HAL_I2C_Master_Transmit+0x1ea>
 80021ae:	2300      	movs	r3, #0
 80021b0:	613b      	str	r3, [r7, #16]
 80021b2:	68fb      	ldr	r3, [r7, #12]
 80021b4:	681b      	ldr	r3, [r3, #0]
 80021b6:	695b      	ldr	r3, [r3, #20]
 80021b8:	613b      	str	r3, [r7, #16]
 80021ba:	68fb      	ldr	r3, [r7, #12]
 80021bc:	681b      	ldr	r3, [r3, #0]
 80021be:	699b      	ldr	r3, [r3, #24]
 80021c0:	613b      	str	r3, [r7, #16]
 80021c2:	693b      	ldr	r3, [r7, #16]
 80021c4:	e066      	b.n	8002294 <HAL_I2C_Master_Transmit+0x1b4>
 80021c6:	697a      	ldr	r2, [r7, #20]
 80021c8:	6a39      	ldr	r1, [r7, #32]
 80021ca:	68f8      	ldr	r0, [r7, #12]
 80021cc:	f000 fa22 	bl	8002614 <I2C_WaitOnTXEFlagUntilTimeout>
 80021d0:	4603      	mov	r3, r0
 80021d2:	2b00      	cmp	r3, #0
 80021d4:	d00d      	beq.n	80021f2 <HAL_I2C_Master_Transmit+0x112>
 80021d6:	68fb      	ldr	r3, [r7, #12]
 80021d8:	6c1b      	ldr	r3, [r3, #64]	@ 0x40
 80021da:	2b04      	cmp	r3, #4
 80021dc:	d107      	bne.n	80021ee <HAL_I2C_Master_Transmit+0x10e>
 80021de:	68fb      	ldr	r3, [r7, #12]
 80021e0:	681b      	ldr	r3, [r3, #0]
 80021e2:	681a      	ldr	r2, [r3, #0]
 80021e4:	68fb      	ldr	r3, [r7, #12]
 80021e6:	681b      	ldr	r3, [r3, #0]
 80021e8:	f442 7200 	orr.w	r2, r2, #512	@ 0x200
 80021ec:	601a      	str	r2, [r3, #0]
 80021ee:	2301      	movs	r3, #1
 80021f0:	e06b      	b.n	80022ca <HAL_I2C_Master_Transmit+0x1ea>
 80021f2:	68fb      	ldr	r3, [r7, #12]
 80021f4:	6a5b      	ldr	r3, [r3, #36]	@ 0x24
 80021f6:	781a      	ldrb	r2, [r3, #0]
 80021f8:	68fb      	ldr	r3, [r7, #12]
 80021fa:	681b      	ldr	r3, [r3, #0]
 80021fc:	611a      	str	r2, [r3, #16]
 80021fe:	68fb      	ldr	r3, [r7, #12]
 8002200:	6a5b      	ldr	r3, [r3, #36]	@ 0x24
 8002202:	1c5a      	adds	r2, r3, #1
 8002204:	68fb      	ldr	r3, [r7, #12]
 8002206:	625a      	str	r2, [r3, #36]	@ 0x24
 8002208:	68fb      	ldr	r3, [r7, #12]
 800220a:	8d5b      	ldrh	r3, [r3, #42]	@ 0x2a
 800220c:	b29b      	uxth	r3, r3
 800220e:	3b01      	subs	r3, #1
 8002210:	b29a      	uxth	r2, r3
 8002212:	68fb      	ldr	r3, [r7, #12]
 8002214:	855a      	strh	r2, [r3, #42]	@ 0x2a
 8002216:	68fb      	ldr	r3, [r7, #12]
 8002218:	8d1b      	ldrh	r3, [r3, #40]	@ 0x28
 800221a:	3b01      	subs	r3, #1
 800221c:	b29a      	uxth	r2, r3
 800221e:	68fb      	ldr	r3, [r7, #12]
 8002220:	851a      	strh	r2, [r3, #40]	@ 0x28
 8002222:	68fb      	ldr	r3, [r7, #12]
 8002224:	681b      	ldr	r3, [r3, #0]
 8002226:	695b      	ldr	r3, [r3, #20]
 8002228:	f003 0304 	and.w	r3, r3, #4
 800222c:	2b04      	cmp	r3, #4
 800222e:	d11b      	bne.n	8002268 <HAL_I2C_Master_Transmit+0x188>
 8002230:	68fb      	ldr	r3, [r7, #12]
 8002232:	8d1b      	ldrh	r3, [r3, #40]	@ 0x28
 8002234:	2b00      	cmp	r3, #0
 8002236:	d017      	beq.n	8002268 <HAL_I2C_Master_Transmit+0x188>
 8002238:	68fb      	ldr	r3, [r7, #12]
 800223a:	6a5b      	ldr	r3, [r3, #36]	@ 0x24
 800223c:	781a      	ldrb	r2, [r3, #0]
 800223e:	68fb      	ldr	r3, [r7, #12]
 8002240:	681b      	ldr	r3, [r3, #0]
 8002242:	611a      	str	r2, [r3, #16]
 8002244:	68fb      	ldr	r3, [r7, #12]
 8002246:	6a5b      	ldr	r3, [r3, #36]	@ 0x24
 8002248:	1c5a      	adds	r2, r3, #1
 800224a:	68fb      	ldr	r3, [r7, #12]
 800224c:	625a      	str	r2, [r3, #36]	@ 0x24
 800224e:	68fb      	ldr	r3, [r7, #12]
 8002250:	8d5b      	ldrh	r3, [r3, #42]	@ 0x2a
 8002252:	b29b      	uxth	r3, r3
 8002254:	3b01      	subs	r3, #1
 8002256:	b29a      	uxth	r2, r3
 8002258:	68fb      	ldr	r3, [r7, #12]
 800225a:	855a      	strh	r2, [r3, #42]	@ 0x2a
 800225c:	68fb      	ldr	r3, [r7, #12]
 800225e:	8d1b      	ldrh	r3, [r3, #40]	@ 0x28
 8002260:	3b01      	subs	r3, #1
 8002262:	b29a      	uxth	r2, r3
 8002264:	68fb      	ldr	r3, [r7, #12]
 8002266:	851a      	strh	r2, [r3, #40]	@ 0x28
 8002268:	697a      	ldr	r2, [r7, #20]
 800226a:	6a39      	ldr	r1, [r7, #32]
 800226c:	68f8      	ldr	r0, [r7, #12]
 800226e:	f000 fa19 	bl	80026a4 <I2C_WaitOnBTFFlagUntilTimeout>
 8002272:	4603      	mov	r3, r0
 8002274:	2b00      	cmp	r3, #0
 8002276:	d00d      	beq.n	8002294 <HAL_I2C_Master_Transmit+0x1b4>
 8002278:	68fb      	ldr	r3, [r7, #12]
 800227a:	6c1b      	ldr	r3, [r3, #64]	@ 0x40
 800227c:	2b04      	cmp	r3, #4
 800227e:	d107      	bne.n	8002290 <HAL_I2C_Master_Transmit+0x1b0>
 8002280:	68fb      	ldr	r3, [r7, #12]
 8002282:	681b      	ldr	r3, [r3, #0]
 8002284:	681a      	ldr	r2, [r3, #0]
 8002286:	68fb      	ldr	r3, [r7, #12]
 8002288:	681b      	ldr	r3, [r3, #0]
 800228a:	f442 7200 	orr.w	r2, r2, #512	@ 0x200
 800228e:	601a      	str	r2, [r3, #0]
 8002290:	2301      	movs	r3, #1
 8002292:	e01a      	b.n	80022ca <HAL_I2C_Master_Transmit+0x1ea>
 8002294:	68fb      	ldr	r3, [r7, #12]
 8002296:	8d1b      	ldrh	r3, [r3, #40]	@ 0x28
 8002298:	2b00      	cmp	r3, #0
 800229a:	d194      	bne.n	80021c6 <HAL_I2C_Master_Transmit+0xe6>
 800229c:	68fb      	ldr	r3, [r7, #12]
 800229e:	681b      	ldr	r3, [r3, #0]
 80022a0:	681a      	ldr	r2, [r3, #0]
 80022a2:	68fb      	ldr	r3, [r7, #12]
 80022a4:	681b      	ldr	r3, [r3, #0]
 80022a6:	f442 7200 	orr.w	r2, r2, #512	@ 0x200
 80022aa:	601a      	str	r2, [r3, #0]
 80022ac:	68fb      	ldr	r3, [r7, #12]
 80022ae:	2220      	movs	r2, #32
 80022b0:	f883 203d 	strb.w	r2, [r3, #61]	@ 0x3d
 80022b4:	68fb      	ldr	r3, [r7, #12]
 80022b6:	2200      	movs	r2, #0
 80022b8:	f883 203e 	strb.w	r2, [r3, #62]	@ 0x3e
 80022bc:	68fb      	ldr	r3, [r7, #12]
 80022be:	2200      	movs	r2, #0
 80022c0:	f883 203c 	strb.w	r2, [r3, #60]	@ 0x3c
 80022c4:	2300      	movs	r3, #0
 80022c6:	e000      	b.n	80022ca <HAL_I2C_Master_Transmit+0x1ea>
 80022c8:	2302      	movs	r3, #2
 80022ca:	4618      	mov	r0, r3
 80022cc:	3718      	adds	r7, #24
 80022ce:	46bd      	mov	sp, r7
 80022d0:	bd80      	pop	{r7, pc}
 80022d2:	bf00      	nop
 80022d4:	00100002 	.word	0x00100002
 80022d8:	ffff0000 	.word	0xffff0000

080022dc <I2C_MasterRequestWrite>:
 80022dc:	b580      	push	{r7, lr}
 80022de:	b088      	sub	sp, #32
 80022e0:	af02      	add	r7, sp, #8
 80022e2:	60f8      	str	r0, [r7, #12]
 80022e4:	607a      	str	r2, [r7, #4]
 80022e6:	603b      	str	r3, [r7, #0]
 80022e8:	460b      	mov	r3, r1
 80022ea:	817b      	strh	r3, [r7, #10]
 80022ec:	68fb      	ldr	r3, [r7, #12]
 80022ee:	6adb      	ldr	r3, [r3, #44]	@ 0x2c
 80022f0:	617b      	str	r3, [r7, #20]
 80022f2:	697b      	ldr	r3, [r7, #20]
 80022f4:	2b08      	cmp	r3, #8
 80022f6:	d006      	beq.n	8002306 <I2C_MasterRequestWrite+0x2a>
 80022f8:	697b      	ldr	r3, [r7, #20]
 80022fa:	2b01      	cmp	r3, #1
 80022fc:	d003      	beq.n	8002306 <I2C_MasterRequestWrite+0x2a>
 80022fe:	697b      	ldr	r3, [r7, #20]
 8002300:	f513 3f80 	cmn.w	r3, #65536	@ 0x10000
 8002304:	d108      	bne.n	8002318 <I2C_MasterRequestWrite+0x3c>
 8002306:	68fb      	ldr	r3, [r7, #12]
 8002308:	681b      	ldr	r3, [r3, #0]
 800230a:	681a      	ldr	r2, [r3, #0]
 800230c:	68fb      	ldr	r3, [r7, #12]
 800230e:	681b      	ldr	r3, [r3, #0]
 8002310:	f442 7280 	orr.w	r2, r2, #256	@ 0x100
 8002314:	601a      	str	r2, [r3, #0]
 8002316:	e00b      	b.n	8002330 <I2C_MasterRequestWrite+0x54>
 8002318:	68fb      	ldr	r3, [r7, #12]
 800231a:	6b1b      	ldr	r3, [r3, #48]	@ 0x30
 800231c:	2b12      	cmp	r3, #18
 800231e:	d107      	bne.n	8002330 <I2C_MasterRequestWrite+0x54>
 8002320:	68fb      	ldr	r3, [r7, #12]
 8002322:	681b      	ldr	r3, [r3, #0]
 8002324:	681a      	ldr	r2, [r3, #0]
 8002326:	68fb      	ldr	r3, [r7, #12]
 8002328:	681b      	ldr	r3, [r3, #0]
 800232a:	f442 7280 	orr.w	r2, r2, #256	@ 0x100
 800232e:	601a      	str	r2, [r3, #0]
 8002330:	683b      	ldr	r3, [r7, #0]
 8002332:	9300      	str	r3, [sp, #0]
 8002334:	687b      	ldr	r3, [r7, #4]
 8002336:	2200      	movs	r2, #0
 8002338:	f04f 1101 	mov.w	r1, #65537	@ 0x10001
 800233c:	68f8      	ldr	r0, [r7, #12]
 800233e:	f000 f84f 	bl	80023e0 <I2C_WaitOnFlagUntilTimeout>
 8002342:	4603      	mov	r3, r0
 8002344:	2b00      	cmp	r3, #0
 8002346:	d00d      	beq.n	8002364 <I2C_MasterRequestWrite+0x88>
 8002348:	68fb      	ldr	r3, [r7, #12]
 800234a:	681b      	ldr	r3, [r3, #0]
 800234c:	681b      	ldr	r3, [r3, #0]
 800234e:	f403 7380 	and.w	r3, r3, #256	@ 0x100
 8002352:	f5b3 7f80 	cmp.w	r3, #256	@ 0x100
 8002356:	d103      	bne.n	8002360 <I2C_MasterRequestWrite+0x84>
 8002358:	68fb      	ldr	r3, [r7, #12]
 800235a:	f44f 7200 	mov.w	r2, #512	@ 0x200
 800235e:	641a      	str	r2, [r3, #64]	@ 0x40
 8002360:	2303      	movs	r3, #3
 8002362:	e035      	b.n	80023d0 <I2C_MasterRequestWrite+0xf4>
 8002364:	68fb      	ldr	r3, [r7, #12]
 8002366:	691b      	ldr	r3, [r3, #16]
 8002368:	f5b3 4f80 	cmp.w	r3, #16384	@ 0x4000
 800236c:	d108      	bne.n	8002380 <I2C_MasterRequestWrite+0xa4>
 800236e:	897b      	ldrh	r3, [r7, #10]
 8002370:	b2db      	uxtb	r3, r3
 8002372:	461a      	mov	r2, r3
 8002374:	68fb      	ldr	r3, [r7, #12]
 8002376:	681b      	ldr	r3, [r3, #0]
 8002378:	f002 02fe 	and.w	r2, r2, #254	@ 0xfe
 800237c:	611a      	str	r2, [r3, #16]
 800237e:	e01b      	b.n	80023b8 <I2C_MasterRequestWrite+0xdc>
 8002380:	897b      	ldrh	r3, [r7, #10]
 8002382:	11db      	asrs	r3, r3, #7
 8002384:	b2db      	uxtb	r3, r3
 8002386:	f003 0306 	and.w	r3, r3, #6
 800238a:	b2db      	uxtb	r3, r3
 800238c:	f063 030f 	orn	r3, r3, #15
 8002390:	b2da      	uxtb	r2, r3
 8002392:	68fb      	ldr	r3, [r7, #12]
 8002394:	681b      	ldr	r3, [r3, #0]
 8002396:	611a      	str	r2, [r3, #16]
 8002398:	683b      	ldr	r3, [r7, #0]
 800239a:	687a      	ldr	r2, [r7, #4]
 800239c:	490e      	ldr	r1, [pc, #56]	@ (80023d8 <I2C_MasterRequestWrite+0xfc>)
 800239e:	68f8      	ldr	r0, [r7, #12]
 80023a0:	f000 f898 	bl	80024d4 <I2C_WaitOnMasterAddressFlagUntilTimeout>
 80023a4:	4603      	mov	r3, r0
 80023a6:	2b00      	cmp	r3, #0
 80023a8:	d001      	beq.n	80023ae <I2C_MasterRequestWrite+0xd2>
 80023aa:	2301      	movs	r3, #1
 80023ac:	e010      	b.n	80023d0 <I2C_MasterRequestWrite+0xf4>
 80023ae:	897b      	ldrh	r3, [r7, #10]
 80023b0:	b2da      	uxtb	r2, r3
 80023b2:	68fb      	ldr	r3, [r7, #12]
 80023b4:	681b      	ldr	r3, [r3, #0]
 80023b6:	611a      	str	r2, [r3, #16]
 80023b8:	683b      	ldr	r3, [r7, #0]
 80023ba:	687a      	ldr	r2, [r7, #4]
 80023bc:	4907      	ldr	r1, [pc, #28]	@ (80023dc <I2C_MasterRequestWrite+0x100>)
 80023be:	68f8      	ldr	r0, [r7, #12]
 80023c0:	f000 f888 	bl	80024d4 <I2C_WaitOnMasterAddressFlagUntilTimeout>
 80023c4:	4603      	mov	r3, r0
 80023c6:	2b00      	cmp	r3, #0
 80023c8:	d001      	beq.n	80023ce <I2C_MasterRequestWrite+0xf2>
 80023ca:	2301      	movs	r3, #1
 80023cc:	e000      	b.n	80023d0 <I2C_MasterRequestWrite+0xf4>
 80023ce:	2300      	movs	r3, #0
 80023d0:	4618      	mov	r0, r3
 80023d2:	3718      	adds	r7, #24
 80023d4:	46bd      	mov	sp, r7
 80023d6:	bd80      	pop	{r7, pc}
 80023d8:	00010008 	.word	0x00010008
 80023dc:	00010002 	.word	0x00010002

080023e0 <I2C_WaitOnFlagUntilTimeout>:
 80023e0:	b580      	push	{r7, lr}
 80023e2:	b084      	sub	sp, #16
 80023e4:	af00      	add	r7, sp, #0
 80023e6:	60f8      	str	r0, [r7, #12]
 80023e8:	60b9      	str	r1, [r7, #8]
 80023ea:	603b      	str	r3, [r7, #0]
 80023ec:	4613      	mov	r3, r2
 80023ee:	71fb      	strb	r3, [r7, #7]
 80023f0:	e048      	b.n	8002484 <I2C_WaitOnFlagUntilTimeout+0xa4>
 80023f2:	683b      	ldr	r3, [r7, #0]
 80023f4:	f1b3 3fff 	cmp.w	r3, #4294967295
 80023f8:	d044      	beq.n	8002484 <I2C_WaitOnFlagUntilTimeout+0xa4>
 80023fa:	f7fe fec5 	bl	8001188 <HAL_GetTick>
 80023fe:	4602      	mov	r2, r0
 8002400:	69bb      	ldr	r3, [r7, #24]
 8002402:	1ad3      	subs	r3, r2, r3
 8002404:	683a      	ldr	r2, [r7, #0]
 8002406:	429a      	cmp	r2, r3
 8002408:	d302      	bcc.n	8002410 <I2C_WaitOnFlagUntilTimeout+0x30>
 800240a:	683b      	ldr	r3, [r7, #0]
 800240c:	2b00      	cmp	r3, #0
 800240e:	d139      	bne.n	8002484 <I2C_WaitOnFlagUntilTimeout+0xa4>
 8002410:	68bb      	ldr	r3, [r7, #8]
 8002412:	0c1b      	lsrs	r3, r3, #16
 8002414:	b2db      	uxtb	r3, r3
 8002416:	2b01      	cmp	r3, #1
 8002418:	d10d      	bne.n	8002436 <I2C_WaitOnFlagUntilTimeout+0x56>
 800241a:	68fb      	ldr	r3, [r7, #12]
 800241c:	681b      	ldr	r3, [r3, #0]
 800241e:	695b      	ldr	r3, [r3, #20]
 8002420:	43da      	mvns	r2, r3
 8002422:	68bb      	ldr	r3, [r7, #8]
 8002424:	4013      	ands	r3, r2
 8002426:	b29b      	uxth	r3, r3
 8002428:	2b00      	cmp	r3, #0
 800242a:	bf0c      	ite	eq
 800242c:	2301      	moveq	r3, #1
 800242e:	2300      	movne	r3, #0
 8002430:	b2db      	uxtb	r3, r3
 8002432:	461a      	mov	r2, r3
 8002434:	e00c      	b.n	8002450 <I2C_WaitOnFlagUntilTimeout+0x70>
 8002436:	68fb      	ldr	r3, [r7, #12]
 8002438:	681b      	ldr	r3, [r3, #0]
 800243a:	699b      	ldr	r3, [r3, #24]
 800243c:	43da      	mvns	r2, r3
 800243e:	68bb      	ldr	r3, [r7, #8]
 8002440:	4013      	ands	r3, r2
 8002442:	b29b      	uxth	r3, r3
 8002444:	2b00      	cmp	r3, #0
 8002446:	bf0c      	ite	eq
 8002448:	2301      	moveq	r3, #1
 800244a:	2300      	movne	r3, #0
 800244c:	b2db      	uxtb	r3, r3
 800244e:	461a      	mov	r2, r3
 8002450:	79fb      	ldrb	r3, [r7, #7]
 8002452:	429a      	cmp	r2, r3
 8002454:	d116      	bne.n	8002484 <I2C_WaitOnFlagUntilTimeout+0xa4>
 8002456:	68fb      	ldr	r3, [r7, #12]
 8002458:	2200      	movs	r2, #0
 800245a:	631a      	str	r2, [r3, #48]	@ 0x30
 800245c:	68fb      	ldr	r3, [r7, #12]
 800245e:	2220      	movs	r2, #32
 8002460:	f883 203d 	strb.w	r2, [r3, #61]	@ 0x3d
 8002464:	68fb      	ldr	r3, [r7, #12]
 8002466:	2200      	movs	r2, #0
 8002468:	f883 203e 	strb.w	r2, [r3, #62]	@ 0x3e
 800246c:	68fb      	ldr	r3, [r7, #12]
 800246e:	6c1b      	ldr	r3, [r3, #64]	@ 0x40
 8002470:	f043 0220 	orr.w	r2, r3, #32
 8002474:	68fb      	ldr	r3, [r7, #12]
 8002476:	641a      	str	r2, [r3, #64]	@ 0x40
 8002478:	68fb      	ldr	r3, [r7, #12]
 800247a:	2200      	movs	r2, #0
 800247c:	f883 203c 	strb.w	r2, [r3, #60]	@ 0x3c
 8002480:	2301      	movs	r3, #1
 8002482:	e023      	b.n	80024cc <I2C_WaitOnFlagUntilTimeout+0xec>
 8002484:	68bb      	ldr	r3, [r7, #8]
 8002486:	0c1b      	lsrs	r3, r3, #16
 8002488:	b2db      	uxtb	r3, r3
 800248a:	2b01      	cmp	r3, #1
 800248c:	d10d      	bne.n	80024aa <I2C_WaitOnFlagUntilTimeout+0xca>
 800248e:	68fb      	ldr	r3, [r7, #12]
 8002490:	681b      	ldr	r3, [r3, #0]
 8002492:	695b      	ldr	r3, [r3, #20]
 8002494:	43da      	mvns	r2, r3
 8002496:	68bb      	ldr	r3, [r7, #8]
 8002498:	4013      	ands	r3, r2
 800249a:	b29b      	uxth	r3, r3
 800249c:	2b00      	cmp	r3, #0
 800249e:	bf0c      	ite	eq
 80024a0:	2301      	moveq	r3, #1
 80024a2:	2300      	movne	r3, #0
 80024a4:	b2db      	uxtb	r3, r3
 80024a6:	461a      	mov	r2, r3
 80024a8:	e00c      	b.n	80024c4 <I2C_WaitOnFlagUntilTimeout+0xe4>
 80024aa:	68fb      	ldr	r3, [r7, #12]
 80024ac:	681b      	ldr	r3, [r3, #0]
 80024ae:	699b      	ldr	r3, [r3, #24]
 80024b0:	43da      	mvns	r2, r3
 80024b2:	68bb      	ldr	r3, [r7, #8]
 80024b4:	4013      	ands	r3, r2
 80024b6:	b29b      	uxth	r3, r3
 80024b8:	2b00      	cmp	r3, #0
 80024ba:	bf0c      	ite	eq
 80024bc:	2301      	moveq	r3, #1
 80024be:	2300      	movne	r3, #0
 80024c0:	b2db      	uxtb	r3, r3
 80024c2:	461a      	mov	r2, r3
 80024c4:	79fb      	ldrb	r3, [r7, #7]
 80024c6:	429a      	cmp	r2, r3
 80024c8:	d093      	beq.n	80023f2 <I2C_WaitOnFlagUntilTimeout+0x12>
 80024ca:	2300      	movs	r3, #0
 80024cc:	4618      	mov	r0, r3
 80024ce:	3710      	adds	r7, #16
 80024d0:	46bd      	mov	sp, r7
 80024d2:	bd80      	pop	{r7, pc}

080024d4 <I2C_WaitOnMasterAddressFlagUntilTimeout>:
 80024d4:	b580      	push	{r7, lr}
 80024d6:	b084      	sub	sp, #16
 80024d8:	af00      	add	r7, sp, #0
 80024da:	60f8      	str	r0, [r7, #12]
 80024dc:	60b9      	str	r1, [r7, #8]
 80024de:	607a      	str	r2, [r7, #4]
 80024e0:	603b      	str	r3, [r7, #0]
 80024e2:	e071      	b.n	80025c8 <I2C_WaitOnMasterAddressFlagUntilTimeout+0xf4>
 80024e4:	68fb      	ldr	r3, [r7, #12]
 80024e6:	681b      	ldr	r3, [r3, #0]
 80024e8:	695b      	ldr	r3, [r3, #20]
 80024ea:	f403 6380 	and.w	r3, r3, #1024	@ 0x400
 80024ee:	f5b3 6f80 	cmp.w	r3, #1024	@ 0x400
 80024f2:	d123      	bne.n	800253c <I2C_WaitOnMasterAddressFlagUntilTimeout+0x68>
 80024f4:	68fb      	ldr	r3, [r7, #12]
 80024f6:	681b      	ldr	r3, [r3, #0]
 80024f8:	681a      	ldr	r2, [r3, #0]
 80024fa:	68fb      	ldr	r3, [r7, #12]
 80024fc:	681b      	ldr	r3, [r3, #0]
 80024fe:	f442 7200 	orr.w	r2, r2, #512	@ 0x200
 8002502:	601a      	str	r2, [r3, #0]
 8002504:	68fb      	ldr	r3, [r7, #12]
 8002506:	681b      	ldr	r3, [r3, #0]
 8002508:	f46f 6280 	mvn.w	r2, #1024	@ 0x400
 800250c:	615a      	str	r2, [r3, #20]
 800250e:	68fb      	ldr	r3, [r7, #12]
 8002510:	2200      	movs	r2, #0
 8002512:	631a      	str	r2, [r3, #48]	@ 0x30
 8002514:	68fb      	ldr	r3, [r7, #12]
 8002516:	2220      	movs	r2, #32
 8002518:	f883 203d 	strb.w	r2, [r3, #61]	@ 0x3d
 800251c:	68fb      	ldr	r3, [r7, #12]
 800251e:	2200      	movs	r2, #0
 8002520:	f883 203e 	strb.w	r2, [r3, #62]	@ 0x3e
 8002524:	68fb      	ldr	r3, [r7, #12]
 8002526:	6c1b      	ldr	r3, [r3, #64]	@ 0x40
 8002528:	f043 0204 	orr.w	r2, r3, #4
 800252c:	68fb      	ldr	r3, [r7, #12]
 800252e:	641a      	str	r2, [r3, #64]	@ 0x40
 8002530:	68fb      	ldr	r3, [r7, #12]
 8002532:	2200      	movs	r2, #0
 8002534:	f883 203c 	strb.w	r2, [r3, #60]	@ 0x3c
 8002538:	2301      	movs	r3, #1
 800253a:	e067      	b.n	800260c <I2C_WaitOnMasterAddressFlagUntilTimeout+0x138>
 800253c:	687b      	ldr	r3, [r7, #4]
 800253e:	f1b3 3fff 	cmp.w	r3, #4294967295
 8002542:	d041      	beq.n	80025c8 <I2C_WaitOnMasterAddressFlagUntilTimeout+0xf4>
 8002544:	f7fe fe20 	bl	8001188 <HAL_GetTick>
 8002548:	4602      	mov	r2, r0
 800254a:	683b      	ldr	r3, [r7, #0]
 800254c:	1ad3      	subs	r3, r2, r3
 800254e:	687a      	ldr	r2, [r7, #4]
 8002550:	429a      	cmp	r2, r3
 8002552:	d302      	bcc.n	800255a <I2C_WaitOnMasterAddressFlagUntilTimeout+0x86>
 8002554:	687b      	ldr	r3, [r7, #4]
 8002556:	2b00      	cmp	r3, #0
 8002558:	d136      	bne.n	80025c8 <I2C_WaitOnMasterAddressFlagUntilTimeout+0xf4>
 800255a:	68bb      	ldr	r3, [r7, #8]
 800255c:	0c1b      	lsrs	r3, r3, #16
 800255e:	b2db      	uxtb	r3, r3
 8002560:	2b01      	cmp	r3, #1
 8002562:	d10c      	bne.n	800257e <I2C_WaitOnMasterAddressFlagUntilTimeout+0xaa>
 8002564:	68fb      	ldr	r3, [r7, #12]
 8002566:	681b      	ldr	r3, [r3, #0]
 8002568:	695b      	ldr	r3, [r3, #20]
 800256a:	43da      	mvns	r2, r3
 800256c:	68bb      	ldr	r3, [r7, #8]
 800256e:	4013      	ands	r3, r2
 8002570:	b29b      	uxth	r3, r3
 8002572:	2b00      	cmp	r3, #0
 8002574:	bf14      	ite	ne
 8002576:	2301      	movne	r3, #1
 8002578:	2300      	moveq	r3, #0
 800257a:	b2db      	uxtb	r3, r3
 800257c:	e00b      	b.n	8002596 <I2C_WaitOnMasterAddressFlagUntilTimeout+0xc2>
 800257e:	68fb      	ldr	r3, [r7, #12]
 8002580:	681b      	ldr	r3, [r3, #0]
 8002582:	699b      	ldr	r3, [r3, #24]
 8002584:	43da      	mvns	r2, r3
 8002586:	68bb      	ldr	r3, [r7, #8]
 8002588:	4013      	ands	r3, r2
 800258a:	b29b      	uxth	r3, r3
 800258c:	2b00      	cmp	r3, #0
 800258e:	bf14      	ite	ne
 8002590:	2301      	movne	r3, #1
 8002592:	2300      	moveq	r3, #0
 8002594:	b2db      	uxtb	r3, r3
 8002596:	2b00      	cmp	r3, #0
 8002598:	d016      	beq.n	80025c8 <I2C_WaitOnMasterAddressFlagUntilTimeout+0xf4>
 800259a:	68fb      	ldr	r3, [r7, #12]
 800259c:	2200      	movs	r2, #0
 800259e:	631a      	str	r2, [r3, #48]	@ 0x30
 80025a0:	68fb      	ldr	r3, [r7, #12]
 80025a2:	2220      	movs	r2, #32
 80025a4:	f883 203d 	strb.w	r2, [r3, #61]	@ 0x3d
 80025a8:	68fb      	ldr	r3, [r7, #12]
 80025aa:	2200      	movs	r2, #0
 80025ac:	f883 203e 	strb.w	r2, [r3, #62]	@ 0x3e
 80025b0:	68fb      	ldr	r3, [r7, #12]
 80025b2:	6c1b      	ldr	r3, [r3, #64]	@ 0x40
 80025b4:	f043 0220 	orr.w	r2, r3, #32
 80025b8:	68fb      	ldr	r3, [r7, #12]
 80025ba:	641a      	str	r2, [r3, #64]	@ 0x40
 80025bc:	68fb      	ldr	r3, [r7, #12]
 80025be:	2200      	movs	r2, #0
 80025c0:	f883 203c 	strb.w	r2, [r3, #60]	@ 0x3c
 80025c4:	2301      	movs	r3, #1
 80025c6:	e021      	b.n	800260c <I2C_WaitOnMasterAddressFlagUntilTimeout+0x138>
 80025c8:	68bb      	ldr	r3, [r7, #8]
 80025ca:	0c1b      	lsrs	r3, r3, #16
 80025cc:	b2db      	uxtb	r3, r3
 80025ce:	2b01      	cmp	r3, #1
 80025d0:	d10c      	bne.n	80025ec <I2C_WaitOnMasterAddressFlagUntilTimeout+0x118>
 80025d2:	68fb      	ldr	r3, [r7, #12]
 80025d4:	681b      	ldr	r3, [r3, #0]
 80025d6:	695b      	ldr	r3, [r3, #20]
 80025d8:	43da      	mvns	r2, r3
 80025da:	68bb      	ldr	r3, [r7, #8]
 80025dc:	4013      	ands	r3, r2
 80025de:	b29b      	uxth	r3, r3
 80025e0:	2b00      	cmp	r3, #0
 80025e2:	bf14      	ite	ne
 80025e4:	2301      	movne	r3, #1
 80025e6:	2300      	moveq	r3, #0
 80025e8:	b2db      	uxtb	r3, r3
 80025ea:	e00b      	b.n	8002604 <I2C_WaitOnMasterAddressFlagUntilTimeout+0x130>
 80025ec:	68fb      	ldr	r3, [r7, #12]
 80025ee:	681b      	ldr	r3, [r3, #0]
 80025f0:	699b      	ldr	r3, [r3, #24]
 80025f2:	43da      	mvns	r2, r3
 80025f4:	68bb      	ldr	r3, [r7, #8]
 80025f6:	4013      	ands	r3, r2
 80025f8:	b29b      	uxth	r3, r3
 80025fa:	2b00      	cmp	r3, #0
 80025fc:	bf14      	ite	ne
 80025fe:	2301      	movne	r3, #1
 8002600:	2300      	moveq	r3, #0
 8002602:	b2db      	uxtb	r3, r3
 8002604:	2b00      	cmp	r3, #0
 8002606:	f47f af6d 	bne.w	80024e4 <I2C_WaitOnMasterAddressFlagUntilTimeout+0x10>
 800260a:	2300      	movs	r3, #0
 800260c:	4618      	mov	r0, r3
 800260e:	3710      	adds	r7, #16
 8002610:	46bd      	mov	sp, r7
 8002612:	bd80      	pop	{r7, pc}

08002614 <I2C_WaitOnTXEFlagUntilTimeout>:
 8002614:	b580      	push	{r7, lr}
 8002616:	b084      	sub	sp, #16
 8002618:	af00      	add	r7, sp, #0
 800261a:	60f8      	str	r0, [r7, #12]
 800261c:	60b9      	str	r1, [r7, #8]
 800261e:	607a      	str	r2, [r7, #4]
 8002620:	e034      	b.n	800268c <I2C_WaitOnTXEFlagUntilTimeout+0x78>
 8002622:	68f8      	ldr	r0, [r7, #12]
 8002624:	f000 f886 	bl	8002734 <I2C_IsAcknowledgeFailed>
 8002628:	4603      	mov	r3, r0
 800262a:	2b00      	cmp	r3, #0
 800262c:	d001      	beq.n	8002632 <I2C_WaitOnTXEFlagUntilTimeout+0x1e>
 800262e:	2301      	movs	r3, #1
 8002630:	e034      	b.n	800269c <I2C_WaitOnTXEFlagUntilTimeout+0x88>
 8002632:	68bb      	ldr	r3, [r7, #8]
 8002634:	f1b3 3fff 	cmp.w	r3, #4294967295
 8002638:	d028      	beq.n	800268c <I2C_WaitOnTXEFlagUntilTimeout+0x78>
 800263a:	f7fe fda5 	bl	8001188 <HAL_GetTick>
 800263e:	4602      	mov	r2, r0
 8002640:	687b      	ldr	r3, [r7, #4]
 8002642:	1ad3      	subs	r3, r2, r3
 8002644:	68ba      	ldr	r2, [r7, #8]
 8002646:	429a      	cmp	r2, r3
 8002648:	d302      	bcc.n	8002650 <I2C_WaitOnTXEFlagUntilTimeout+0x3c>
 800264a:	68bb      	ldr	r3, [r7, #8]
 800264c:	2b00      	cmp	r3, #0
 800264e:	d11d      	bne.n	800268c <I2C_WaitOnTXEFlagUntilTimeout+0x78>
 8002650:	68fb      	ldr	r3, [r7, #12]
 8002652:	681b      	ldr	r3, [r3, #0]
 8002654:	695b      	ldr	r3, [r3, #20]
 8002656:	f003 0380 	and.w	r3, r3, #128	@ 0x80
 800265a:	2b80      	cmp	r3, #128	@ 0x80
 800265c:	d016      	beq.n	800268c <I2C_WaitOnTXEFlagUntilTimeout+0x78>
 800265e:	68fb      	ldr	r3, [r7, #12]
 8002660:	2200      	movs	r2, #0
 8002662:	631a      	str	r2, [r3, #48]	@ 0x30
 8002664:	68fb      	ldr	r3, [r7, #12]
 8002666:	2220      	movs	r2, #32
 8002668:	f883 203d 	strb.w	r2, [r3, #61]	@ 0x3d
 800266c:	68fb      	ldr	r3, [r7, #12]
 800266e:	2200      	movs	r2, #0
 8002670:	f883 203e 	strb.w	r2, [r3, #62]	@ 0x3e
 8002674:	68fb      	ldr	r3, [r7, #12]
 8002676:	6c1b      	ldr	r3, [r3, #64]	@ 0x40
 8002678:	f043 0220 	orr.w	r2, r3, #32
 800267c:	68fb      	ldr	r3, [r7, #12]
 800267e:	641a      	str	r2, [r3, #64]	@ 0x40
 8002680:	68fb      	ldr	r3, [r7, #12]
 8002682:	2200      	movs	r2, #0
 8002684:	f883 203c 	strb.w	r2, [r3, #60]	@ 0x3c
 8002688:	2301      	movs	r3, #1
 800268a:	e007      	b.n	800269c <I2C_WaitOnTXEFlagUntilTimeout+0x88>
 800268c:	68fb      	ldr	r3, [r7, #12]
 800268e:	681b      	ldr	r3, [r3, #0]
 8002690:	695b      	ldr	r3, [r3, #20]
 8002692:	f003 0380 	and.w	r3, r3, #128	@ 0x80
 8002696:	2b80      	cmp	r3, #128	@ 0x80
 8002698:	d1c3      	bne.n	8002622 <I2C_WaitOnTXEFlagUntilTimeout+0xe>
 800269a:	2300      	movs	r3, #0
 800269c:	4618      	mov	r0, r3
 800269e:	3710      	adds	r7, #16
 80026a0:	46bd      	mov	sp, r7
 80026a2:	bd80      	pop	{r7, pc}

080026a4 <I2C_WaitOnBTFFlagUntilTimeout>:
 80026a4:	b580      	push	{r7, lr}
 80026a6:	b084      	sub	sp, #16
 80026a8:	af00      	add	r7, sp, #0
 80026aa:	60f8      	str	r0, [r7, #12]
 80026ac:	60b9      	str	r1, [r7, #8]
 80026ae:	607a      	str	r2, [r7, #4]
 80026b0:	e034      	b.n	800271c <I2C_WaitOnBTFFlagUntilTimeout+0x78>
 80026b2:	68f8      	ldr	r0, [r7, #12]
 80026b4:	f000 f83e 	bl	8002734 <I2C_IsAcknowledgeFailed>
 80026b8:	4603      	mov	r3, r0
 80026ba:	2b00      	cmp	r3, #0
 80026bc:	d001      	beq.n	80026c2 <I2C_WaitOnBTFFlagUntilTimeout+0x1e>
 80026be:	2301      	movs	r3, #1
 80026c0:	e034      	b.n	800272c <I2C_WaitOnBTFFlagUntilTimeout+0x88>
 80026c2:	68bb      	ldr	r3, [r7, #8]
 80026c4:	f1b3 3fff 	cmp.w	r3, #4294967295
 80026c8:	d028      	beq.n	800271c <I2C_WaitOnBTFFlagUntilTimeout+0x78>
 80026ca:	f7fe fd5d 	bl	8001188 <HAL_GetTick>
 80026ce:	4602      	mov	r2, r0
 80026d0:	687b      	ldr	r3, [r7, #4]
 80026d2:	1ad3      	subs	r3, r2, r3
 80026d4:	68ba      	ldr	r2, [r7, #8]
 80026d6:	429a      	cmp	r2, r3
 80026d8:	d302      	bcc.n	80026e0 <I2C_WaitOnBTFFlagUntilTimeout+0x3c>
 80026da:	68bb      	ldr	r3, [r7, #8]
 80026dc:	2b00      	cmp	r3, #0
 80026de:	d11d      	bne.n	800271c <I2C_WaitOnBTFFlagUntilTimeout+0x78>
 80026e0:	68fb      	ldr	r3, [r7, #12]
 80026e2:	681b      	ldr	r3, [r3, #0]
 80026e4:	695b      	ldr	r3, [r3, #20]
 80026e6:	f003 0304 	and.w	r3, r3, #4
 80026ea:	2b04      	cmp	r3, #4
 80026ec:	d016      	beq.n	800271c <I2C_WaitOnBTFFlagUntilTimeout+0x78>
 80026ee:	68fb      	ldr	r3, [r7, #12]
 80026f0:	2200      	movs	r2, #0
 80026f2:	631a      	str	r2, [r3, #48]	@ 0x30
 80026f4:	68fb      	ldr	r3, [r7, #12]
 80026f6:	2220      	movs	r2, #32
 80026f8:	f883 203d 	strb.w	r2, [r3, #61]	@ 0x3d
 80026fc:	68fb      	ldr	r3, [r7, #12]
 80026fe:	2200      	movs	r2, #0
 8002700:	f883 203e 	strb.w	r2, [r3, #62]	@ 0x3e
 8002704:	68fb      	ldr	r3, [r7, #12]
 8002706:	6c1b      	ldr	r3, [r3, #64]	@ 0x40
 8002708:	f043 0220 	orr.w	r2, r3, #32
 800270c:	68fb      	ldr	r3, [r7, #12]
 800270e:	641a      	str	r2, [r3, #64]	@ 0x40
 8002710:	68fb      	ldr	r3, [r7, #12]
 8002712:	2200      	movs	r2, #0
 8002714:	f883 203c 	strb.w	r2, [r3, #60]	@ 0x3c
 8002718:	2301      	movs	r3, #1
 800271a:	e007      	b.n	800272c <I2C_WaitOnBTFFlagUntilTimeout+0x88>
 800271c:	68fb      	ldr	r3, [r7, #12]
 800271e:	681b      	ldr	r3, [r3, #0]
 8002720:	695b      	ldr	r3, [r3, #20]
 8002722:	f003 0304 	and.w	r3, r3, #4
 8002726:	2b04      	cmp	r3, #4
 8002728:	d1c3      	bne.n	80026b2 <I2C_WaitOnBTFFlagUntilTimeout+0xe>
 800272a:	2300      	movs	r3, #0
 800272c:	4618      	mov	r0, r3
 800272e:	3710      	adds	r7, #16
 8002730:	46bd      	mov	sp, r7
 8002732:	bd80      	pop	{r7, pc}

08002734 <I2C_IsAcknowledgeFailed>:
 8002734:	b480      	push	{r7}
 8002736:	b083      	sub	sp, #12
 8002738:	af00      	add	r7, sp, #0
 800273a:	6078      	str	r0, [r7, #4]
 800273c:	687b      	ldr	r3, [r7, #4]
 800273e:	681b      	ldr	r3, [r3, #0]
 8002740:	695b      	ldr	r3, [r3, #20]
 8002742:	f403 6380 	and.w	r3, r3, #1024	@ 0x400
 8002746:	f5b3 6f80 	cmp.w	r3, #1024	@ 0x400
 800274a:	d11b      	bne.n	8002784 <I2C_IsAcknowledgeFailed+0x50>
 800274c:	687b      	ldr	r3, [r7, #4]
 800274e:	681b      	ldr	r3, [r3, #0]
 8002750:	f46f 6280 	mvn.w	r2, #1024	@ 0x400
 8002754:	615a      	str	r2, [r3, #20]
 8002756:	687b      	ldr	r3, [r7, #4]
 8002758:	2200      	movs	r2, #0
 800275a:	631a      	str	r2, [r3, #48]	@ 0x30
 800275c:	687b      	ldr	r3, [r7, #4]
 800275e:	2220      	movs	r2, #32
 8002760:	f883 203d 	strb.w	r2, [r3, #61]	@ 0x3d
 8002764:	687b      	ldr	r3, [r7, #4]
 8002766:	2200      	movs	r2, #0
 8002768:	f883 203e 	strb.w	r2, [r3, #62]	@ 0x3e
 800276c:	687b      	ldr	r3, [r7, #4]
 800276e:	6c1b      	ldr	r3, [r3, #64]	@ 0x40
 8002770:	f043 0204 	orr.w	r2, r3, #4
 8002774:	687b      	ldr	r3, [r7, #4]
 8002776:	641a      	str	r2, [r3, #64]	@ 0x40
 8002778:	687b      	ldr	r3, [r7, #4]
 800277a:	2200      	movs	r2, #0
 800277c:	f883 203c 	strb.w	r2, [r3, #60]	@ 0x3c
 8002780:	2301      	movs	r3, #1
 8002782:	e000      	b.n	8002786 <I2C_IsAcknowledgeFailed+0x52>
 8002784:	2300      	movs	r3, #0
 8002786:	4618      	mov	r0, r3
 8002788:	370c      	adds	r7, #12
 800278a:	46bd      	mov	sp, r7
 800278c:	f85d 7b04 	ldr.w	r7, [sp], #4
 8002790:	4770      	bx	lr
	...

08002794 <HAL_I2S_Init>:
 8002794:	b580      	push	{r7, lr}
 8002796:	b088      	sub	sp, #32
 8002798:	af00      	add	r7, sp, #0
 800279a:	6078      	str	r0, [r7, #4]
 800279c:	687b      	ldr	r3, [r7, #4]
 800279e:	2b00      	cmp	r3, #0
 80027a0:	d101      	bne.n	80027a6 <HAL_I2S_Init+0x12>
 80027a2:	2301      	movs	r3, #1
 80027a4:	e128      	b.n	80029f8 <HAL_I2S_Init+0x264>
 80027a6:	687b      	ldr	r3, [r7, #4]
 80027a8:	f893 3041 	ldrb.w	r3, [r3, #65]	@ 0x41
 80027ac:	b2db      	uxtb	r3, r3
 80027ae:	2b00      	cmp	r3, #0
 80027b0:	d109      	bne.n	80027c6 <HAL_I2S_Init+0x32>
 80027b2:	687b      	ldr	r3, [r7, #4]
 80027b4:	2200      	movs	r2, #0
 80027b6:	f883 2040 	strb.w	r2, [r3, #64]	@ 0x40
 80027ba:	687b      	ldr	r3, [r7, #4]
 80027bc:	4a90      	ldr	r2, [pc, #576]	@ (8002a00 <HAL_I2S_Init+0x26c>)
 80027be:	635a      	str	r2, [r3, #52]	@ 0x34
 80027c0:	6878      	ldr	r0, [r7, #4]
 80027c2:	f7fe fb47 	bl	8000e54 <HAL_I2S_MspInit>
 80027c6:	687b      	ldr	r3, [r7, #4]
 80027c8:	2202      	movs	r2, #2
 80027ca:	f883 2041 	strb.w	r2, [r3, #65]	@ 0x41
 80027ce:	687b      	ldr	r3, [r7, #4]
 80027d0:	681b      	ldr	r3, [r3, #0]
 80027d2:	69db      	ldr	r3, [r3, #28]
 80027d4:	687a      	ldr	r2, [r7, #4]
 80027d6:	6812      	ldr	r2, [r2, #0]
 80027d8:	f423 637b 	bic.w	r3, r3, #4016	@ 0xfb0
 80027dc:	f023 030f 	bic.w	r3, r3, #15
 80027e0:	61d3      	str	r3, [r2, #28]
 80027e2:	687b      	ldr	r3, [r7, #4]
 80027e4:	681b      	ldr	r3, [r3, #0]
 80027e6:	2202      	movs	r2, #2
 80027e8:	621a      	str	r2, [r3, #32]
 80027ea:	687b      	ldr	r3, [r7, #4]
 80027ec:	695b      	ldr	r3, [r3, #20]
 80027ee:	2b02      	cmp	r3, #2
 80027f0:	d060      	beq.n	80028b4 <HAL_I2S_Init+0x120>
 80027f2:	687b      	ldr	r3, [r7, #4]
 80027f4:	68db      	ldr	r3, [r3, #12]
 80027f6:	2b00      	cmp	r3, #0
 80027f8:	d102      	bne.n	8002800 <HAL_I2S_Init+0x6c>
 80027fa:	2310      	movs	r3, #16
 80027fc:	617b      	str	r3, [r7, #20]
 80027fe:	e001      	b.n	8002804 <HAL_I2S_Init+0x70>
 8002800:	2320      	movs	r3, #32
 8002802:	617b      	str	r3, [r7, #20]
 8002804:	687b      	ldr	r3, [r7, #4]
 8002806:	689b      	ldr	r3, [r3, #8]
 8002808:	2b20      	cmp	r3, #32
 800280a:	d802      	bhi.n	8002812 <HAL_I2S_Init+0x7e>
 800280c:	697b      	ldr	r3, [r7, #20]
 800280e:	005b      	lsls	r3, r3, #1
 8002810:	617b      	str	r3, [r7, #20]
 8002812:	2001      	movs	r0, #1
 8002814:	f001 fa8a 	bl	8003d2c <HAL_RCCEx_GetPeriphCLKFreq>
 8002818:	60f8      	str	r0, [r7, #12]
 800281a:	687b      	ldr	r3, [r7, #4]
 800281c:	691b      	ldr	r3, [r3, #16]
 800281e:	f5b3 7f00 	cmp.w	r3, #512	@ 0x200
 8002822:	d125      	bne.n	8002870 <HAL_I2S_Init+0xdc>
 8002824:	687b      	ldr	r3, [r7, #4]
 8002826:	68db      	ldr	r3, [r3, #12]
 8002828:	2b00      	cmp	r3, #0
 800282a:	d010      	beq.n	800284e <HAL_I2S_Init+0xba>
 800282c:	697b      	ldr	r3, [r7, #20]
 800282e:	009b      	lsls	r3, r3, #2
 8002830:	68fa      	ldr	r2, [r7, #12]
 8002832:	fbb2 f2f3 	udiv	r2, r2, r3
 8002836:	4613      	mov	r3, r2
 8002838:	009b      	lsls	r3, r3, #2
 800283a:	4413      	add	r3, r2
 800283c:	005b      	lsls	r3, r3, #1
 800283e:	461a      	mov	r2, r3
 8002840:	687b      	ldr	r3, [r7, #4]
 8002842:	695b      	ldr	r3, [r3, #20]
 8002844:	fbb2 f3f3 	udiv	r3, r2, r3
 8002848:	3305      	adds	r3, #5
 800284a:	613b      	str	r3, [r7, #16]
 800284c:	e01f      	b.n	800288e <HAL_I2S_Init+0xfa>
 800284e:	697b      	ldr	r3, [r7, #20]
 8002850:	00db      	lsls	r3, r3, #3
 8002852:	68fa      	ldr	r2, [r7, #12]
 8002854:	fbb2 f2f3 	udiv	r2, r2, r3
 8002858:	4613      	mov	r3, r2
 800285a:	009b      	lsls	r3, r3, #2
 800285c:	4413      	add	r3, r2
 800285e:	005b      	lsls	r3, r3, #1
 8002860:	461a      	mov	r2, r3
 8002862:	687b      	ldr	r3, [r7, #4]
 8002864:	695b      	ldr	r3, [r3, #20]
 8002866:	fbb2 f3f3 	udiv	r3, r2, r3
 800286a:	3305      	adds	r3, #5
 800286c:	613b      	str	r3, [r7, #16]
 800286e:	e00e      	b.n	800288e <HAL_I2S_Init+0xfa>
 8002870:	68fa      	ldr	r2, [r7, #12]
 8002872:	697b      	ldr	r3, [r7, #20]
 8002874:	fbb2 f2f3 	udiv	r2, r2, r3
 8002878:	4613      	mov	r3, r2
 800287a:	009b      	lsls	r3, r3, #2
 800287c:	4413      	add	r3, r2
 800287e:	005b      	lsls	r3, r3, #1
 8002880:	461a      	mov	r2, r3
 8002882:	687b      	ldr	r3, [r7, #4]
 8002884:	695b      	ldr	r3, [r3, #20]
 8002886:	fbb2 f3f3 	udiv	r3, r2, r3
 800288a:	3305      	adds	r3, #5
 800288c:	613b      	str	r3, [r7, #16]
 800288e:	693b      	ldr	r3, [r7, #16]
 8002890:	4a5c      	ldr	r2, [pc, #368]	@ (8002a04 <HAL_I2S_Init+0x270>)
 8002892:	fba2 2303 	umull	r2, r3, r2, r3
 8002896:	08db      	lsrs	r3, r3, #3
 8002898:	613b      	str	r3, [r7, #16]
 800289a:	693b      	ldr	r3, [r7, #16]
 800289c:	f003 0301 	and.w	r3, r3, #1
 80028a0:	61bb      	str	r3, [r7, #24]
 80028a2:	693a      	ldr	r2, [r7, #16]
 80028a4:	69bb      	ldr	r3, [r7, #24]
 80028a6:	1ad3      	subs	r3, r2, r3
 80028a8:	085b      	lsrs	r3, r3, #1
 80028aa:	61fb      	str	r3, [r7, #28]
 80028ac:	69bb      	ldr	r3, [r7, #24]
 80028ae:	021b      	lsls	r3, r3, #8
 80028b0:	61bb      	str	r3, [r7, #24]
 80028b2:	e003      	b.n	80028bc <HAL_I2S_Init+0x128>
 80028b4:	2302      	movs	r3, #2
 80028b6:	61fb      	str	r3, [r7, #28]
 80028b8:	2300      	movs	r3, #0
 80028ba:	61bb      	str	r3, [r7, #24]
 80028bc:	69fb      	ldr	r3, [r7, #28]
 80028be:	2b01      	cmp	r3, #1
 80028c0:	d902      	bls.n	80028c8 <HAL_I2S_Init+0x134>
 80028c2:	69fb      	ldr	r3, [r7, #28]
 80028c4:	2bff      	cmp	r3, #255	@ 0xff
 80028c6:	d907      	bls.n	80028d8 <HAL_I2S_Init+0x144>
 80028c8:	687b      	ldr	r3, [r7, #4]
 80028ca:	6c5b      	ldr	r3, [r3, #68]	@ 0x44
 80028cc:	f043 0210 	orr.w	r2, r3, #16
 80028d0:	687b      	ldr	r3, [r7, #4]
 80028d2:	645a      	str	r2, [r3, #68]	@ 0x44
 80028d4:	2301      	movs	r3, #1
 80028d6:	e08f      	b.n	80029f8 <HAL_I2S_Init+0x264>
 80028d8:	687b      	ldr	r3, [r7, #4]
 80028da:	691a      	ldr	r2, [r3, #16]
 80028dc:	69bb      	ldr	r3, [r7, #24]
 80028de:	ea42 0103 	orr.w	r1, r2, r3
 80028e2:	687b      	ldr	r3, [r7, #4]
 80028e4:	681b      	ldr	r3, [r3, #0]
 80028e6:	69fa      	ldr	r2, [r7, #28]
 80028e8:	430a      	orrs	r2, r1
 80028ea:	621a      	str	r2, [r3, #32]
 80028ec:	687b      	ldr	r3, [r7, #4]
 80028ee:	681b      	ldr	r3, [r3, #0]
 80028f0:	69db      	ldr	r3, [r3, #28]
 80028f2:	f423 637b 	bic.w	r3, r3, #4016	@ 0xfb0
 80028f6:	f023 030f 	bic.w	r3, r3, #15
 80028fa:	687a      	ldr	r2, [r7, #4]
 80028fc:	6851      	ldr	r1, [r2, #4]
 80028fe:	687a      	ldr	r2, [r7, #4]
 8002900:	6892      	ldr	r2, [r2, #8]
 8002902:	4311      	orrs	r1, r2
 8002904:	687a      	ldr	r2, [r7, #4]
 8002906:	68d2      	ldr	r2, [r2, #12]
 8002908:	4311      	orrs	r1, r2
 800290a:	687a      	ldr	r2, [r7, #4]
 800290c:	6992      	ldr	r2, [r2, #24]
 800290e:	430a      	orrs	r2, r1
 8002910:	431a      	orrs	r2, r3
 8002912:	687b      	ldr	r3, [r7, #4]
 8002914:	681b      	ldr	r3, [r3, #0]
 8002916:	f442 6200 	orr.w	r2, r2, #2048	@ 0x800
 800291a:	61da      	str	r2, [r3, #28]
 800291c:	687b      	ldr	r3, [r7, #4]
 800291e:	6a1b      	ldr	r3, [r3, #32]
 8002920:	2b01      	cmp	r3, #1
 8002922:	d161      	bne.n	80029e8 <HAL_I2S_Init+0x254>
 8002924:	687b      	ldr	r3, [r7, #4]
 8002926:	4a38      	ldr	r2, [pc, #224]	@ (8002a08 <HAL_I2S_Init+0x274>)
 8002928:	635a      	str	r2, [r3, #52]	@ 0x34
 800292a:	687b      	ldr	r3, [r7, #4]
 800292c:	681b      	ldr	r3, [r3, #0]
 800292e:	4a37      	ldr	r2, [pc, #220]	@ (8002a0c <HAL_I2S_Init+0x278>)
 8002930:	4293      	cmp	r3, r2
 8002932:	d101      	bne.n	8002938 <HAL_I2S_Init+0x1a4>
 8002934:	4b36      	ldr	r3, [pc, #216]	@ (8002a10 <HAL_I2S_Init+0x27c>)
 8002936:	e001      	b.n	800293c <HAL_I2S_Init+0x1a8>
 8002938:	f04f 2340 	mov.w	r3, #1073758208	@ 0x40004000
 800293c:	69db      	ldr	r3, [r3, #28]
 800293e:	687a      	ldr	r2, [r7, #4]
 8002940:	6812      	ldr	r2, [r2, #0]
 8002942:	4932      	ldr	r1, [pc, #200]	@ (8002a0c <HAL_I2S_Init+0x278>)
 8002944:	428a      	cmp	r2, r1
 8002946:	d101      	bne.n	800294c <HAL_I2S_Init+0x1b8>
 8002948:	4a31      	ldr	r2, [pc, #196]	@ (8002a10 <HAL_I2S_Init+0x27c>)
 800294a:	e001      	b.n	8002950 <HAL_I2S_Init+0x1bc>
 800294c:	f04f 2240 	mov.w	r2, #1073758208	@ 0x40004000
 8002950:	f423 637b 	bic.w	r3, r3, #4016	@ 0xfb0
 8002954:	f023 030f 	bic.w	r3, r3, #15
 8002958:	61d3      	str	r3, [r2, #28]
 800295a:	687b      	ldr	r3, [r7, #4]
 800295c:	681b      	ldr	r3, [r3, #0]
 800295e:	4a2b      	ldr	r2, [pc, #172]	@ (8002a0c <HAL_I2S_Init+0x278>)
 8002960:	4293      	cmp	r3, r2
 8002962:	d101      	bne.n	8002968 <HAL_I2S_Init+0x1d4>
 8002964:	4b2a      	ldr	r3, [pc, #168]	@ (8002a10 <HAL_I2S_Init+0x27c>)
 8002966:	e001      	b.n	800296c <HAL_I2S_Init+0x1d8>
 8002968:	f04f 2340 	mov.w	r3, #1073758208	@ 0x40004000
 800296c:	2202      	movs	r2, #2
 800296e:	621a      	str	r2, [r3, #32]
 8002970:	687b      	ldr	r3, [r7, #4]
 8002972:	681b      	ldr	r3, [r3, #0]
 8002974:	4a25      	ldr	r2, [pc, #148]	@ (8002a0c <HAL_I2S_Init+0x278>)
 8002976:	4293      	cmp	r3, r2
 8002978:	d101      	bne.n	800297e <HAL_I2S_Init+0x1ea>
 800297a:	4b25      	ldr	r3, [pc, #148]	@ (8002a10 <HAL_I2S_Init+0x27c>)
 800297c:	e001      	b.n	8002982 <HAL_I2S_Init+0x1ee>
 800297e:	f04f 2340 	mov.w	r3, #1073758208	@ 0x40004000
 8002982:	69db      	ldr	r3, [r3, #28]
 8002984:	817b      	strh	r3, [r7, #10]
 8002986:	687b      	ldr	r3, [r7, #4]
 8002988:	685b      	ldr	r3, [r3, #4]
 800298a:	f5b3 7f00 	cmp.w	r3, #512	@ 0x200
 800298e:	d003      	beq.n	8002998 <HAL_I2S_Init+0x204>
 8002990:	687b      	ldr	r3, [r7, #4]
 8002992:	685b      	ldr	r3, [r3, #4]
 8002994:	2b00      	cmp	r3, #0
 8002996:	d103      	bne.n	80029a0 <HAL_I2S_Init+0x20c>
 8002998:	f44f 7380 	mov.w	r3, #256	@ 0x100
 800299c:	613b      	str	r3, [r7, #16]
 800299e:	e001      	b.n	80029a4 <HAL_I2S_Init+0x210>
 80029a0:	2300      	movs	r3, #0
 80029a2:	613b      	str	r3, [r7, #16]
 80029a4:	693b      	ldr	r3, [r7, #16]
 80029a6:	b29a      	uxth	r2, r3
 80029a8:	687b      	ldr	r3, [r7, #4]
 80029aa:	689b      	ldr	r3, [r3, #8]
 80029ac:	b29b      	uxth	r3, r3
 80029ae:	4313      	orrs	r3, r2
 80029b0:	b29a      	uxth	r2, r3
 80029b2:	687b      	ldr	r3, [r7, #4]
 80029b4:	68db      	ldr	r3, [r3, #12]
 80029b6:	b29b      	uxth	r3, r3
 80029b8:	4313      	orrs	r3, r2
 80029ba:	b29a      	uxth	r2, r3
 80029bc:	687b      	ldr	r3, [r7, #4]
 80029be:	699b      	ldr	r3, [r3, #24]
 80029c0:	b29b      	uxth	r3, r3
 80029c2:	4313      	orrs	r3, r2
 80029c4:	b29a      	uxth	r2, r3
 80029c6:	897b      	ldrh	r3, [r7, #10]
 80029c8:	4313      	orrs	r3, r2
 80029ca:	b29b      	uxth	r3, r3
 80029cc:	f443 6300 	orr.w	r3, r3, #2048	@ 0x800
 80029d0:	817b      	strh	r3, [r7, #10]
 80029d2:	687b      	ldr	r3, [r7, #4]
 80029d4:	681b      	ldr	r3, [r3, #0]
 80029d6:	4a0d      	ldr	r2, [pc, #52]	@ (8002a0c <HAL_I2S_Init+0x278>)
 80029d8:	4293      	cmp	r3, r2
 80029da:	d101      	bne.n	80029e0 <HAL_I2S_Init+0x24c>
 80029dc:	4b0c      	ldr	r3, [pc, #48]	@ (8002a10 <HAL_I2S_Init+0x27c>)
 80029de:	e001      	b.n	80029e4 <HAL_I2S_Init+0x250>
 80029e0:	f04f 2340 	mov.w	r3, #1073758208	@ 0x40004000
 80029e4:	897a      	ldrh	r2, [r7, #10]
 80029e6:	61da      	str	r2, [r3, #28]
 80029e8:	687b      	ldr	r3, [r7, #4]
 80029ea:	2200      	movs	r2, #0
 80029ec:	645a      	str	r2, [r3, #68]	@ 0x44
 80029ee:	687b      	ldr	r3, [r7, #4]
 80029f0:	2201      	movs	r2, #1
 80029f2:	f883 2041 	strb.w	r2, [r3, #65]	@ 0x41
 80029f6:	2300      	movs	r3, #0
 80029f8:	4618      	mov	r0, r3
 80029fa:	3720      	adds	r7, #32
 80029fc:	46bd      	mov	sp, r7
 80029fe:	bd80      	pop	{r7, pc}
 8002a00:	08002d19 	.word	0x08002d19
 8002a04:	cccccccd 	.word	0xcccccccd
 8002a08:	08002e2d 	.word	0x08002e2d
 8002a0c:	40003800 	.word	0x40003800
 8002a10:	40003400 	.word	0x40003400

08002a14 <HAL_I2S_Transmit_DMA>:
 8002a14:	b580      	push	{r7, lr}
 8002a16:	b086      	sub	sp, #24
 8002a18:	af00      	add	r7, sp, #0
 8002a1a:	60f8      	str	r0, [r7, #12]
 8002a1c:	60b9      	str	r1, [r7, #8]
 8002a1e:	4613      	mov	r3, r2
 8002a20:	80fb      	strh	r3, [r7, #6]
 8002a22:	68bb      	ldr	r3, [r7, #8]
 8002a24:	2b00      	cmp	r3, #0
 8002a26:	d002      	beq.n	8002a2e <HAL_I2S_Transmit_DMA+0x1a>
 8002a28:	88fb      	ldrh	r3, [r7, #6]
 8002a2a:	2b00      	cmp	r3, #0
 8002a2c:	d101      	bne.n	8002a32 <HAL_I2S_Transmit_DMA+0x1e>
 8002a2e:	2301      	movs	r3, #1
 8002a30:	e08e      	b.n	8002b50 <HAL_I2S_Transmit_DMA+0x13c>
 8002a32:	68fb      	ldr	r3, [r7, #12]
 8002a34:	f893 3040 	ldrb.w	r3, [r3, #64]	@ 0x40
 8002a38:	b2db      	uxtb	r3, r3
 8002a3a:	2b01      	cmp	r3, #1
 8002a3c:	d101      	bne.n	8002a42 <HAL_I2S_Transmit_DMA+0x2e>
 8002a3e:	2302      	movs	r3, #2
 8002a40:	e086      	b.n	8002b50 <HAL_I2S_Transmit_DMA+0x13c>
 8002a42:	68fb      	ldr	r3, [r7, #12]
 8002a44:	2201      	movs	r2, #1
 8002a46:	f883 2040 	strb.w	r2, [r3, #64]	@ 0x40
 8002a4a:	68fb      	ldr	r3, [r7, #12]
 8002a4c:	f893 3041 	ldrb.w	r3, [r3, #65]	@ 0x41
 8002a50:	b2db      	uxtb	r3, r3
 8002a52:	2b01      	cmp	r3, #1
 8002a54:	d005      	beq.n	8002a62 <HAL_I2S_Transmit_DMA+0x4e>
 8002a56:	68fb      	ldr	r3, [r7, #12]
 8002a58:	2200      	movs	r2, #0
 8002a5a:	f883 2040 	strb.w	r2, [r3, #64]	@ 0x40
 8002a5e:	2302      	movs	r3, #2
 8002a60:	e076      	b.n	8002b50 <HAL_I2S_Transmit_DMA+0x13c>
 8002a62:	68fb      	ldr	r3, [r7, #12]
 8002a64:	2203      	movs	r2, #3
 8002a66:	f883 2041 	strb.w	r2, [r3, #65]	@ 0x41
 8002a6a:	68fb      	ldr	r3, [r7, #12]
 8002a6c:	2200      	movs	r2, #0
 8002a6e:	645a      	str	r2, [r3, #68]	@ 0x44
 8002a70:	68fb      	ldr	r3, [r7, #12]
 8002a72:	68ba      	ldr	r2, [r7, #8]
 8002a74:	625a      	str	r2, [r3, #36]	@ 0x24
 8002a76:	68fb      	ldr	r3, [r7, #12]
 8002a78:	681b      	ldr	r3, [r3, #0]
 8002a7a:	69db      	ldr	r3, [r3, #28]
 8002a7c:	f003 0307 	and.w	r3, r3, #7
 8002a80:	617b      	str	r3, [r7, #20]
 8002a82:	697b      	ldr	r3, [r7, #20]
 8002a84:	2b03      	cmp	r3, #3
 8002a86:	d002      	beq.n	8002a8e <HAL_I2S_Transmit_DMA+0x7a>
 8002a88:	697b      	ldr	r3, [r7, #20]
 8002a8a:	2b05      	cmp	r3, #5
 8002a8c:	d10a      	bne.n	8002aa4 <HAL_I2S_Transmit_DMA+0x90>
 8002a8e:	88fb      	ldrh	r3, [r7, #6]
 8002a90:	005b      	lsls	r3, r3, #1
 8002a92:	b29a      	uxth	r2, r3
 8002a94:	68fb      	ldr	r3, [r7, #12]
 8002a96:	851a      	strh	r2, [r3, #40]	@ 0x28
 8002a98:	88fb      	ldrh	r3, [r7, #6]
 8002a9a:	005b      	lsls	r3, r3, #1
 8002a9c:	b29a      	uxth	r2, r3
 8002a9e:	68fb      	ldr	r3, [r7, #12]
 8002aa0:	855a      	strh	r2, [r3, #42]	@ 0x2a
 8002aa2:	e005      	b.n	8002ab0 <HAL_I2S_Transmit_DMA+0x9c>
 8002aa4:	68fb      	ldr	r3, [r7, #12]
 8002aa6:	88fa      	ldrh	r2, [r7, #6]
 8002aa8:	851a      	strh	r2, [r3, #40]	@ 0x28
 8002aaa:	68fb      	ldr	r3, [r7, #12]
 8002aac:	88fa      	ldrh	r2, [r7, #6]
 8002aae:	855a      	strh	r2, [r3, #42]	@ 0x2a
 8002ab0:	68fb      	ldr	r3, [r7, #12]
 8002ab2:	6b9b      	ldr	r3, [r3, #56]	@ 0x38
 8002ab4:	4a28      	ldr	r2, [pc, #160]	@ (8002b58 <HAL_I2S_Transmit_DMA+0x144>)
 8002ab6:	641a      	str	r2, [r3, #64]	@ 0x40
 8002ab8:	68fb      	ldr	r3, [r7, #12]
 8002aba:	6b9b      	ldr	r3, [r3, #56]	@ 0x38
 8002abc:	4a27      	ldr	r2, [pc, #156]	@ (8002b5c <HAL_I2S_Transmit_DMA+0x148>)
 8002abe:	63da      	str	r2, [r3, #60]	@ 0x3c
 8002ac0:	68fb      	ldr	r3, [r7, #12]
 8002ac2:	6b9b      	ldr	r3, [r3, #56]	@ 0x38
 8002ac4:	4a26      	ldr	r2, [pc, #152]	@ (8002b60 <HAL_I2S_Transmit_DMA+0x14c>)
 8002ac6:	64da      	str	r2, [r3, #76]	@ 0x4c
 8002ac8:	68fb      	ldr	r3, [r7, #12]
 8002aca:	6b98      	ldr	r0, [r3, #56]	@ 0x38
 8002acc:	68fb      	ldr	r3, [r7, #12]
 8002ace:	6a5b      	ldr	r3, [r3, #36]	@ 0x24
 8002ad0:	4619      	mov	r1, r3
 8002ad2:	68fb      	ldr	r3, [r7, #12]
 8002ad4:	681b      	ldr	r3, [r3, #0]
 8002ad6:	330c      	adds	r3, #12
 8002ad8:	461a      	mov	r2, r3
 8002ada:	68fb      	ldr	r3, [r7, #12]
 8002adc:	8d1b      	ldrh	r3, [r3, #40]	@ 0x28
 8002ade:	b29b      	uxth	r3, r3
 8002ae0:	f7fe fd42 	bl	8001568 <HAL_DMA_Start_IT>
 8002ae4:	4603      	mov	r3, r0
 8002ae6:	2b00      	cmp	r3, #0
 8002ae8:	d00f      	beq.n	8002b0a <HAL_I2S_Transmit_DMA+0xf6>
 8002aea:	68fb      	ldr	r3, [r7, #12]
 8002aec:	6c5b      	ldr	r3, [r3, #68]	@ 0x44
 8002aee:	f043 0208 	orr.w	r2, r3, #8
 8002af2:	68fb      	ldr	r3, [r7, #12]
 8002af4:	645a      	str	r2, [r3, #68]	@ 0x44
 8002af6:	68fb      	ldr	r3, [r7, #12]
 8002af8:	2201      	movs	r2, #1
 8002afa:	f883 2041 	strb.w	r2, [r3, #65]	@ 0x41
 8002afe:	68fb      	ldr	r3, [r7, #12]
 8002b00:	2200      	movs	r2, #0
 8002b02:	f883 2040 	strb.w	r2, [r3, #64]	@ 0x40
 8002b06:	2301      	movs	r3, #1
 8002b08:	e022      	b.n	8002b50 <HAL_I2S_Transmit_DMA+0x13c>
 8002b0a:	68fb      	ldr	r3, [r7, #12]
 8002b0c:	681b      	ldr	r3, [r3, #0]
 8002b0e:	69db      	ldr	r3, [r3, #28]
 8002b10:	f403 6380 	and.w	r3, r3, #1024	@ 0x400
 8002b14:	2b00      	cmp	r3, #0
 8002b16:	d107      	bne.n	8002b28 <HAL_I2S_Transmit_DMA+0x114>
 8002b18:	68fb      	ldr	r3, [r7, #12]
 8002b1a:	681b      	ldr	r3, [r3, #0]
 8002b1c:	69da      	ldr	r2, [r3, #28]
 8002b1e:	68fb      	ldr	r3, [r7, #12]
 8002b20:	681b      	ldr	r3, [r3, #0]
 8002b22:	f442 6280 	orr.w	r2, r2, #1024	@ 0x400
 8002b26:	61da      	str	r2, [r3, #28]
 8002b28:	68fb      	ldr	r3, [r7, #12]
 8002b2a:	681b      	ldr	r3, [r3, #0]
 8002b2c:	685b      	ldr	r3, [r3, #4]
 8002b2e:	f003 0302 	and.w	r3, r3, #2
 8002b32:	2b00      	cmp	r3, #0
 8002b34:	d107      	bne.n	8002b46 <HAL_I2S_Transmit_DMA+0x132>
 8002b36:	68fb      	ldr	r3, [r7, #12]
 8002b38:	681b      	ldr	r3, [r3, #0]
 8002b3a:	685a      	ldr	r2, [r3, #4]
 8002b3c:	68fb      	ldr	r3, [r7, #12]
 8002b3e:	681b      	ldr	r3, [r3, #0]
 8002b40:	f042 0202 	orr.w	r2, r2, #2
 8002b44:	605a      	str	r2, [r3, #4]
 8002b46:	68fb      	ldr	r3, [r7, #12]
 8002b48:	2200      	movs	r2, #0
 8002b4a:	f883 2040 	strb.w	r2, [r3, #64]	@ 0x40
 8002b4e:	2300      	movs	r3, #0
 8002b50:	4618      	mov	r0, r3
 8002b52:	3718      	adds	r7, #24
 8002b54:	46bd      	mov	sp, r7
 8002b56:	bd80      	pop	{r7, pc}
 8002b58:	08002bf7 	.word	0x08002bf7
 8002b5c:	08002bb5 	.word	0x08002bb5
 8002b60:	08002c13 	.word	0x08002c13

08002b64 <HAL_I2S_TxHalfCpltCallback>:
 8002b64:	b480      	push	{r7}
 8002b66:	b083      	sub	sp, #12
 8002b68:	af00      	add	r7, sp, #0
 8002b6a:	6078      	str	r0, [r7, #4]
 8002b6c:	bf00      	nop
 8002b6e:	370c      	adds	r7, #12
 8002b70:	46bd      	mov	sp, r7
 8002b72:	f85d 7b04 	ldr.w	r7, [sp], #4
 8002b76:	4770      	bx	lr

08002b78 <HAL_I2S_TxCpltCallback>:
 8002b78:	b480      	push	{r7}
 8002b7a:	b083      	sub	sp, #12
 8002b7c:	af00      	add	r7, sp, #0
 8002b7e:	6078      	str	r0, [r7, #4]
 8002b80:	bf00      	nop
 8002b82:	370c      	adds	r7, #12
 8002b84:	46bd      	mov	sp, r7
 8002b86:	f85d 7b04 	ldr.w	r7, [sp], #4
 8002b8a:	4770      	bx	lr

08002b8c <HAL_I2S_RxCpltCallback>:
 8002b8c:	b480      	push	{r7}
 8002b8e:	b083      	sub	sp, #12
 8002b90:	af00      	add	r7, sp, #0
 8002b92:	6078      	str	r0, [r7, #4]
 8002b94:	bf00      	nop
 8002b96:	370c      	adds	r7, #12
 8002b98:	46bd      	mov	sp, r7
 8002b9a:	f85d 7b04 	ldr.w	r7, [sp], #4
 8002b9e:	4770      	bx	lr

08002ba0 <HAL_I2S_ErrorCallback>:
 8002ba0:	b480      	push	{r7}
 8002ba2:	b083      	sub	sp, #12
 8002ba4:	af00      	add	r7, sp, #0
 8002ba6:	6078      	str	r0, [r7, #4]
 8002ba8:	bf00      	nop
 8002baa:	370c      	adds	r7, #12
 8002bac:	46bd      	mov	sp, r7
 8002bae:	f85d 7b04 	ldr.w	r7, [sp], #4
 8002bb2:	4770      	bx	lr

08002bb4 <I2S_DMATxCplt>:
 8002bb4:	b580      	push	{r7, lr}
 8002bb6:	b084      	sub	sp, #16
 8002bb8:	af00      	add	r7, sp, #0
 8002bba:	6078      	str	r0, [r7, #4]
 8002bbc:	687b      	ldr	r3, [r7, #4]
 8002bbe:	6b9b      	ldr	r3, [r3, #56]	@ 0x38
 8002bc0:	60fb      	str	r3, [r7, #12]
 8002bc2:	687b      	ldr	r3, [r7, #4]
 8002bc4:	69db      	ldr	r3, [r3, #28]
 8002bc6:	2b00      	cmp	r3, #0
 8002bc8:	d10e      	bne.n	8002be8 <I2S_DMATxCplt+0x34>
 8002bca:	68fb      	ldr	r3, [r7, #12]
 8002bcc:	681b      	ldr	r3, [r3, #0]
 8002bce:	685a      	ldr	r2, [r3, #4]
 8002bd0:	68fb      	ldr	r3, [r7, #12]
 8002bd2:	681b      	ldr	r3, [r3, #0]
 8002bd4:	f022 0202 	bic.w	r2, r2, #2
 8002bd8:	605a      	str	r2, [r3, #4]
 8002bda:	68fb      	ldr	r3, [r7, #12]
 8002bdc:	2200      	movs	r2, #0
 8002bde:	855a      	strh	r2, [r3, #42]	@ 0x2a
 8002be0:	68fb      	ldr	r3, [r7, #12]
 8002be2:	2201      	movs	r2, #1
 8002be4:	f883 2041 	strb.w	r2, [r3, #65]	@ 0x41
 8002be8:	68f8      	ldr	r0, [r7, #12]
 8002bea:	f7ff ffc5 	bl	8002b78 <HAL_I2S_TxCpltCallback>
 8002bee:	bf00      	nop
 8002bf0:	3710      	adds	r7, #16
 8002bf2:	46bd      	mov	sp, r7
 8002bf4:	bd80      	pop	{r7, pc}

08002bf6 <I2S_DMATxHalfCplt>:
 8002bf6:	b580      	push	{r7, lr}
 8002bf8:	b084      	sub	sp, #16
 8002bfa:	af00      	add	r7, sp, #0
 8002bfc:	6078      	str	r0, [r7, #4]
 8002bfe:	687b      	ldr	r3, [r7, #4]
 8002c00:	6b9b      	ldr	r3, [r3, #56]	@ 0x38
 8002c02:	60fb      	str	r3, [r7, #12]
 8002c04:	68f8      	ldr	r0, [r7, #12]
 8002c06:	f7ff ffad 	bl	8002b64 <HAL_I2S_TxHalfCpltCallback>
 8002c0a:	bf00      	nop
 8002c0c:	3710      	adds	r7, #16
 8002c0e:	46bd      	mov	sp, r7
 8002c10:	bd80      	pop	{r7, pc}

08002c12 <I2S_DMAError>:
 8002c12:	b580      	push	{r7, lr}
 8002c14:	b084      	sub	sp, #16
 8002c16:	af00      	add	r7, sp, #0
 8002c18:	6078      	str	r0, [r7, #4]
 8002c1a:	687b      	ldr	r3, [r7, #4]
 8002c1c:	6b9b      	ldr	r3, [r3, #56]	@ 0x38
 8002c1e:	60fb      	str	r3, [r7, #12]
 8002c20:	68fb      	ldr	r3, [r7, #12]
 8002c22:	681b      	ldr	r3, [r3, #0]
 8002c24:	685a      	ldr	r2, [r3, #4]
 8002c26:	68fb      	ldr	r3, [r7, #12]
 8002c28:	681b      	ldr	r3, [r3, #0]
 8002c2a:	f022 0203 	bic.w	r2, r2, #3
 8002c2e:	605a      	str	r2, [r3, #4]
 8002c30:	68fb      	ldr	r3, [r7, #12]
 8002c32:	2200      	movs	r2, #0
 8002c34:	855a      	strh	r2, [r3, #42]	@ 0x2a
 8002c36:	68fb      	ldr	r3, [r7, #12]
 8002c38:	2200      	movs	r2, #0
 8002c3a:	865a      	strh	r2, [r3, #50]	@ 0x32
 8002c3c:	68fb      	ldr	r3, [r7, #12]
 8002c3e:	2201      	movs	r2, #1
 8002c40:	f883 2041 	strb.w	r2, [r3, #65]	@ 0x41
 8002c44:	68fb      	ldr	r3, [r7, #12]
 8002c46:	6c5b      	ldr	r3, [r3, #68]	@ 0x44
 8002c48:	f043 0208 	orr.w	r2, r3, #8
 8002c4c:	68fb      	ldr	r3, [r7, #12]
 8002c4e:	645a      	str	r2, [r3, #68]	@ 0x44
 8002c50:	68f8      	ldr	r0, [r7, #12]
 8002c52:	f7ff ffa5 	bl	8002ba0 <HAL_I2S_ErrorCallback>
 8002c56:	bf00      	nop
 8002c58:	3710      	adds	r7, #16
 8002c5a:	46bd      	mov	sp, r7
 8002c5c:	bd80      	pop	{r7, pc}

08002c5e <I2S_Transmit_IT>:
 8002c5e:	b580      	push	{r7, lr}
 8002c60:	b082      	sub	sp, #8
 8002c62:	af00      	add	r7, sp, #0
 8002c64:	6078      	str	r0, [r7, #4]
 8002c66:	687b      	ldr	r3, [r7, #4]
 8002c68:	6a5b      	ldr	r3, [r3, #36]	@ 0x24
 8002c6a:	881a      	ldrh	r2, [r3, #0]
 8002c6c:	687b      	ldr	r3, [r7, #4]
 8002c6e:	681b      	ldr	r3, [r3, #0]
 8002c70:	60da      	str	r2, [r3, #12]
 8002c72:	687b      	ldr	r3, [r7, #4]
 8002c74:	6a5b      	ldr	r3, [r3, #36]	@ 0x24
 8002c76:	1c9a      	adds	r2, r3, #2
 8002c78:	687b      	ldr	r3, [r7, #4]
 8002c7a:	625a      	str	r2, [r3, #36]	@ 0x24
 8002c7c:	687b      	ldr	r3, [r7, #4]
 8002c7e:	8d5b      	ldrh	r3, [r3, #42]	@ 0x2a
 8002c80:	b29b      	uxth	r3, r3
 8002c82:	3b01      	subs	r3, #1
 8002c84:	b29a      	uxth	r2, r3
 8002c86:	687b      	ldr	r3, [r7, #4]
 8002c88:	855a      	strh	r2, [r3, #42]	@ 0x2a
 8002c8a:	687b      	ldr	r3, [r7, #4]
 8002c8c:	8d5b      	ldrh	r3, [r3, #42]	@ 0x2a
 8002c8e:	b29b      	uxth	r3, r3
 8002c90:	2b00      	cmp	r3, #0
 8002c92:	d10e      	bne.n	8002cb2 <I2S_Transmit_IT+0x54>
 8002c94:	687b      	ldr	r3, [r7, #4]
 8002c96:	681b      	ldr	r3, [r3, #0]
 8002c98:	685a      	ldr	r2, [r3, #4]
 8002c9a:	687b      	ldr	r3, [r7, #4]
 8002c9c:	681b      	ldr	r3, [r3, #0]
 8002c9e:	f022 02a0 	bic.w	r2, r2, #160	@ 0xa0
 8002ca2:	605a      	str	r2, [r3, #4]
 8002ca4:	687b      	ldr	r3, [r7, #4]
 8002ca6:	2201      	movs	r2, #1
 8002ca8:	f883 2041 	strb.w	r2, [r3, #65]	@ 0x41
 8002cac:	6878      	ldr	r0, [r7, #4]
 8002cae:	f7ff ff63 	bl	8002b78 <HAL_I2S_TxCpltCallback>
 8002cb2:	bf00      	nop
 8002cb4:	3708      	adds	r7, #8
 8002cb6:	46bd      	mov	sp, r7
 8002cb8:	bd80      	pop	{r7, pc}

08002cba <I2S_Receive_IT>:
 8002cba:	b580      	push	{r7, lr}
 8002cbc:	b082      	sub	sp, #8
 8002cbe:	af00      	add	r7, sp, #0
 8002cc0:	6078      	str	r0, [r7, #4]
 8002cc2:	687b      	ldr	r3, [r7, #4]
 8002cc4:	681b      	ldr	r3, [r3, #0]
 8002cc6:	68da      	ldr	r2, [r3, #12]
 8002cc8:	687b      	ldr	r3, [r7, #4]
 8002cca:	6adb      	ldr	r3, [r3, #44]	@ 0x2c
 8002ccc:	b292      	uxth	r2, r2
 8002cce:	801a      	strh	r2, [r3, #0]
 8002cd0:	687b      	ldr	r3, [r7, #4]
 8002cd2:	6adb      	ldr	r3, [r3, #44]	@ 0x2c
 8002cd4:	1c9a      	adds	r2, r3, #2
 8002cd6:	687b      	ldr	r3, [r7, #4]
 8002cd8:	62da      	str	r2, [r3, #44]	@ 0x2c
 8002cda:	687b      	ldr	r3, [r7, #4]
 8002cdc:	8e5b      	ldrh	r3, [r3, #50]	@ 0x32
 8002cde:	b29b      	uxth	r3, r3
 8002ce0:	3b01      	subs	r3, #1
 8002ce2:	b29a      	uxth	r2, r3
 8002ce4:	687b      	ldr	r3, [r7, #4]
 8002ce6:	865a      	strh	r2, [r3, #50]	@ 0x32
 8002ce8:	687b      	ldr	r3, [r7, #4]
 8002cea:	8e5b      	ldrh	r3, [r3, #50]	@ 0x32
 8002cec:	b29b      	uxth	r3, r3
 8002cee:	2b00      	cmp	r3, #0
 8002cf0:	d10e      	bne.n	8002d10 <I2S_Receive_IT+0x56>
 8002cf2:	687b      	ldr	r3, [r7, #4]
 8002cf4:	681b      	ldr	r3, [r3, #0]
 8002cf6:	685a      	ldr	r2, [r3, #4]
 8002cf8:	687b      	ldr	r3, [r7, #4]
 8002cfa:	681b      	ldr	r3, [r3, #0]
 8002cfc:	f022 0260 	bic.w	r2, r2, #96	@ 0x60
 8002d00:	605a      	str	r2, [r3, #4]
 8002d02:	687b      	ldr	r3, [r7, #4]
 8002d04:	2201      	movs	r2, #1
 8002d06:	f883 2041 	strb.w	r2, [r3, #65]	@ 0x41
 8002d0a:	6878      	ldr	r0, [r7, #4]
 8002d0c:	f7ff ff3e 	bl	8002b8c <HAL_I2S_RxCpltCallback>
 8002d10:	bf00      	nop
 8002d12:	3708      	adds	r7, #8
 8002d14:	46bd      	mov	sp, r7
 8002d16:	bd80      	pop	{r7, pc}

08002d18 <I2S_IRQHandler>:
 8002d18:	b580      	push	{r7, lr}
 8002d1a:	b086      	sub	sp, #24
 8002d1c:	af00      	add	r7, sp, #0
 8002d1e:	6078      	str	r0, [r7, #4]
 8002d20:	687b      	ldr	r3, [r7, #4]
 8002d22:	681b      	ldr	r3, [r3, #0]
 8002d24:	689b      	ldr	r3, [r3, #8]
 8002d26:	617b      	str	r3, [r7, #20]
 8002d28:	687b      	ldr	r3, [r7, #4]
 8002d2a:	f893 3041 	ldrb.w	r3, [r3, #65]	@ 0x41
 8002d2e:	b2db      	uxtb	r3, r3
 8002d30:	2b04      	cmp	r3, #4
 8002d32:	d13a      	bne.n	8002daa <I2S_IRQHandler+0x92>
 8002d34:	697b      	ldr	r3, [r7, #20]
 8002d36:	f003 0301 	and.w	r3, r3, #1
 8002d3a:	2b01      	cmp	r3, #1
 8002d3c:	d109      	bne.n	8002d52 <I2S_IRQHandler+0x3a>
 8002d3e:	687b      	ldr	r3, [r7, #4]
 8002d40:	681b      	ldr	r3, [r3, #0]
 8002d42:	685b      	ldr	r3, [r3, #4]
 8002d44:	f003 0340 	and.w	r3, r3, #64	@ 0x40
 8002d48:	2b40      	cmp	r3, #64	@ 0x40
 8002d4a:	d102      	bne.n	8002d52 <I2S_IRQHandler+0x3a>
 8002d4c:	6878      	ldr	r0, [r7, #4]
 8002d4e:	f7ff ffb4 	bl	8002cba <I2S_Receive_IT>
 8002d52:	697b      	ldr	r3, [r7, #20]
 8002d54:	f003 0340 	and.w	r3, r3, #64	@ 0x40
 8002d58:	2b40      	cmp	r3, #64	@ 0x40
 8002d5a:	d126      	bne.n	8002daa <I2S_IRQHandler+0x92>
 8002d5c:	687b      	ldr	r3, [r7, #4]
 8002d5e:	681b      	ldr	r3, [r3, #0]
 8002d60:	685b      	ldr	r3, [r3, #4]
 8002d62:	f003 0320 	and.w	r3, r3, #32
 8002d66:	2b20      	cmp	r3, #32
 8002d68:	d11f      	bne.n	8002daa <I2S_IRQHandler+0x92>
 8002d6a:	687b      	ldr	r3, [r7, #4]
 8002d6c:	681b      	ldr	r3, [r3, #0]
 8002d6e:	685a      	ldr	r2, [r3, #4]
 8002d70:	687b      	ldr	r3, [r7, #4]
 8002d72:	681b      	ldr	r3, [r3, #0]
 8002d74:	f022 0260 	bic.w	r2, r2, #96	@ 0x60
 8002d78:	605a      	str	r2, [r3, #4]
 8002d7a:	2300      	movs	r3, #0
 8002d7c:	613b      	str	r3, [r7, #16]
 8002d7e:	687b      	ldr	r3, [r7, #4]
 8002d80:	681b      	ldr	r3, [r3, #0]
 8002d82:	68db      	ldr	r3, [r3, #12]
 8002d84:	613b      	str	r3, [r7, #16]
 8002d86:	687b      	ldr	r3, [r7, #4]
 8002d88:	681b      	ldr	r3, [r3, #0]
 8002d8a:	689b      	ldr	r3, [r3, #8]
 8002d8c:	613b      	str	r3, [r7, #16]
 8002d8e:	693b      	ldr	r3, [r7, #16]
 8002d90:	687b      	ldr	r3, [r7, #4]
 8002d92:	2201      	movs	r2, #1
 8002d94:	f883 2041 	strb.w	r2, [r3, #65]	@ 0x41
 8002d98:	687b      	ldr	r3, [r7, #4]
 8002d9a:	6c5b      	ldr	r3, [r3, #68]	@ 0x44
 8002d9c:	f043 0202 	orr.w	r2, r3, #2
 8002da0:	687b      	ldr	r3, [r7, #4]
 8002da2:	645a      	str	r2, [r3, #68]	@ 0x44
 8002da4:	6878      	ldr	r0, [r7, #4]
 8002da6:	f7ff fefb 	bl	8002ba0 <HAL_I2S_ErrorCallback>
 8002daa:	687b      	ldr	r3, [r7, #4]
 8002dac:	f893 3041 	ldrb.w	r3, [r3, #65]	@ 0x41
 8002db0:	b2db      	uxtb	r3, r3
 8002db2:	2b03      	cmp	r3, #3
 8002db4:	d136      	bne.n	8002e24 <I2S_IRQHandler+0x10c>
 8002db6:	697b      	ldr	r3, [r7, #20]
 8002db8:	f003 0302 	and.w	r3, r3, #2
 8002dbc:	2b02      	cmp	r3, #2
 8002dbe:	d109      	bne.n	8002dd4 <I2S_IRQHandler+0xbc>
 8002dc0:	687b      	ldr	r3, [r7, #4]
 8002dc2:	681b      	ldr	r3, [r3, #0]
 8002dc4:	685b      	ldr	r3, [r3, #4]
 8002dc6:	f003 0380 	and.w	r3, r3, #128	@ 0x80
 8002dca:	2b80      	cmp	r3, #128	@ 0x80
 8002dcc:	d102      	bne.n	8002dd4 <I2S_IRQHandler+0xbc>
 8002dce:	6878      	ldr	r0, [r7, #4]
 8002dd0:	f7ff ff45 	bl	8002c5e <I2S_Transmit_IT>
 8002dd4:	697b      	ldr	r3, [r7, #20]
 8002dd6:	f003 0308 	and.w	r3, r3, #8
 8002dda:	2b08      	cmp	r3, #8
 8002ddc:	d122      	bne.n	8002e24 <I2S_IRQHandler+0x10c>
 8002dde:	687b      	ldr	r3, [r7, #4]
 8002de0:	681b      	ldr	r3, [r3, #0]
 8002de2:	685b      	ldr	r3, [r3, #4]
 8002de4:	f003 0320 	and.w	r3, r3, #32
 8002de8:	2b20      	cmp	r3, #32
 8002dea:	d11b      	bne.n	8002e24 <I2S_IRQHandler+0x10c>
 8002dec:	687b      	ldr	r3, [r7, #4]
 8002dee:	681b      	ldr	r3, [r3, #0]
 8002df0:	685a      	ldr	r2, [r3, #4]
 8002df2:	687b      	ldr	r3, [r7, #4]
 8002df4:	681b      	ldr	r3, [r3, #0]
 8002df6:	f022 02a0 	bic.w	r2, r2, #160	@ 0xa0
 8002dfa:	605a      	str	r2, [r3, #4]
 8002dfc:	2300      	movs	r3, #0
 8002dfe:	60fb      	str	r3, [r7, #12]
 8002e00:	687b      	ldr	r3, [r7, #4]
 8002e02:	681b      	ldr	r3, [r3, #0]
 8002e04:	689b      	ldr	r3, [r3, #8]
 8002e06:	60fb      	str	r3, [r7, #12]
 8002e08:	68fb      	ldr	r3, [r7, #12]
 8002e0a:	687b      	ldr	r3, [r7, #4]
 8002e0c:	2201      	movs	r2, #1
 8002e0e:	f883 2041 	strb.w	r2, [r3, #65]	@ 0x41
 8002e12:	687b      	ldr	r3, [r7, #4]
 8002e14:	6c5b      	ldr	r3, [r3, #68]	@ 0x44
 8002e16:	f043 0204 	orr.w	r2, r3, #4
 8002e1a:	687b      	ldr	r3, [r7, #4]
 8002e1c:	645a      	str	r2, [r3, #68]	@ 0x44
 8002e1e:	6878      	ldr	r0, [r7, #4]
 8002e20:	f7ff febe 	bl	8002ba0 <HAL_I2S_ErrorCallback>
 8002e24:	bf00      	nop
 8002e26:	3718      	adds	r7, #24
 8002e28:	46bd      	mov	sp, r7
 8002e2a:	bd80      	pop	{r7, pc}

08002e2c <HAL_I2SEx_FullDuplex_IRQHandler>:
 8002e2c:	b580      	push	{r7, lr}
 8002e2e:	b088      	sub	sp, #32
 8002e30:	af00      	add	r7, sp, #0
 8002e32:	6078      	str	r0, [r7, #4]
 8002e34:	687b      	ldr	r3, [r7, #4]
 8002e36:	681b      	ldr	r3, [r3, #0]
 8002e38:	689b      	ldr	r3, [r3, #8]
 8002e3a:	61fb      	str	r3, [r7, #28]
 8002e3c:	687b      	ldr	r3, [r7, #4]
 8002e3e:	681b      	ldr	r3, [r3, #0]
 8002e40:	4a92      	ldr	r2, [pc, #584]	@ (800308c <HAL_I2SEx_FullDuplex_IRQHandler+0x260>)
 8002e42:	4293      	cmp	r3, r2
 8002e44:	d101      	bne.n	8002e4a <HAL_I2SEx_FullDuplex_IRQHandler+0x1e>
 8002e46:	4b92      	ldr	r3, [pc, #584]	@ (8003090 <HAL_I2SEx_FullDuplex_IRQHandler+0x264>)
 8002e48:	e001      	b.n	8002e4e <HAL_I2SEx_FullDuplex_IRQHandler+0x22>
 8002e4a:	f04f 2340 	mov.w	r3, #1073758208	@ 0x40004000
 8002e4e:	689b      	ldr	r3, [r3, #8]
 8002e50:	61bb      	str	r3, [r7, #24]
 8002e52:	687b      	ldr	r3, [r7, #4]
 8002e54:	681b      	ldr	r3, [r3, #0]
 8002e56:	685b      	ldr	r3, [r3, #4]
 8002e58:	617b      	str	r3, [r7, #20]
 8002e5a:	687b      	ldr	r3, [r7, #4]
 8002e5c:	681b      	ldr	r3, [r3, #0]
 8002e5e:	4a8b      	ldr	r2, [pc, #556]	@ (800308c <HAL_I2SEx_FullDuplex_IRQHandler+0x260>)
 8002e60:	4293      	cmp	r3, r2
 8002e62:	d101      	bne.n	8002e68 <HAL_I2SEx_FullDuplex_IRQHandler+0x3c>
 8002e64:	4b8a      	ldr	r3, [pc, #552]	@ (8003090 <HAL_I2SEx_FullDuplex_IRQHandler+0x264>)
 8002e66:	e001      	b.n	8002e6c <HAL_I2SEx_FullDuplex_IRQHandler+0x40>
 8002e68:	f04f 2340 	mov.w	r3, #1073758208	@ 0x40004000
 8002e6c:	685b      	ldr	r3, [r3, #4]
 8002e6e:	613b      	str	r3, [r7, #16]
 8002e70:	687b      	ldr	r3, [r7, #4]
 8002e72:	685b      	ldr	r3, [r3, #4]
 8002e74:	f5b3 7f00 	cmp.w	r3, #512	@ 0x200
 8002e78:	d004      	beq.n	8002e84 <HAL_I2SEx_FullDuplex_IRQHandler+0x58>
 8002e7a:	687b      	ldr	r3, [r7, #4]
 8002e7c:	685b      	ldr	r3, [r3, #4]
 8002e7e:	2b00      	cmp	r3, #0
 8002e80:	f040 8099 	bne.w	8002fb6 <HAL_I2SEx_FullDuplex_IRQHandler+0x18a>
 8002e84:	69fb      	ldr	r3, [r7, #28]
 8002e86:	f003 0302 	and.w	r3, r3, #2
 8002e8a:	2b02      	cmp	r3, #2
 8002e8c:	d107      	bne.n	8002e9e <HAL_I2SEx_FullDuplex_IRQHandler+0x72>
 8002e8e:	697b      	ldr	r3, [r7, #20]
 8002e90:	f003 0380 	and.w	r3, r3, #128	@ 0x80
 8002e94:	2b00      	cmp	r3, #0
 8002e96:	d002      	beq.n	8002e9e <HAL_I2SEx_FullDuplex_IRQHandler+0x72>
 8002e98:	6878      	ldr	r0, [r7, #4]
 8002e9a:	f000 f925 	bl	80030e8 <I2SEx_TxISR_I2S>
 8002e9e:	69bb      	ldr	r3, [r7, #24]
 8002ea0:	f003 0301 	and.w	r3, r3, #1
 8002ea4:	2b01      	cmp	r3, #1
 8002ea6:	d107      	bne.n	8002eb8 <HAL_I2SEx_FullDuplex_IRQHandler+0x8c>
 8002ea8:	693b      	ldr	r3, [r7, #16]
 8002eaa:	f003 0340 	and.w	r3, r3, #64	@ 0x40
 8002eae:	2b00      	cmp	r3, #0
 8002eb0:	d002      	beq.n	8002eb8 <HAL_I2SEx_FullDuplex_IRQHandler+0x8c>
 8002eb2:	6878      	ldr	r0, [r7, #4]
 8002eb4:	f000 f9c8 	bl	8003248 <I2SEx_RxISR_I2SExt>
 8002eb8:	69bb      	ldr	r3, [r7, #24]
 8002eba:	f003 0340 	and.w	r3, r3, #64	@ 0x40
 8002ebe:	2b40      	cmp	r3, #64	@ 0x40
 8002ec0:	d13a      	bne.n	8002f38 <HAL_I2SEx_FullDuplex_IRQHandler+0x10c>
 8002ec2:	693b      	ldr	r3, [r7, #16]
 8002ec4:	f003 0320 	and.w	r3, r3, #32
 8002ec8:	2b00      	cmp	r3, #0
 8002eca:	d035      	beq.n	8002f38 <HAL_I2SEx_FullDuplex_IRQHandler+0x10c>
 8002ecc:	687b      	ldr	r3, [r7, #4]
 8002ece:	681b      	ldr	r3, [r3, #0]
 8002ed0:	4a6e      	ldr	r2, [pc, #440]	@ (800308c <HAL_I2SEx_FullDuplex_IRQHandler+0x260>)
 8002ed2:	4293      	cmp	r3, r2
 8002ed4:	d101      	bne.n	8002eda <HAL_I2SEx_FullDuplex_IRQHandler+0xae>
 8002ed6:	4b6e      	ldr	r3, [pc, #440]	@ (8003090 <HAL_I2SEx_FullDuplex_IRQHandler+0x264>)
 8002ed8:	e001      	b.n	8002ede <HAL_I2SEx_FullDuplex_IRQHandler+0xb2>
 8002eda:	f04f 2340 	mov.w	r3, #1073758208	@ 0x40004000
 8002ede:	685a      	ldr	r2, [r3, #4]
 8002ee0:	687b      	ldr	r3, [r7, #4]
 8002ee2:	681b      	ldr	r3, [r3, #0]
 8002ee4:	4969      	ldr	r1, [pc, #420]	@ (800308c <HAL_I2SEx_FullDuplex_IRQHandler+0x260>)
 8002ee6:	428b      	cmp	r3, r1
 8002ee8:	d101      	bne.n	8002eee <HAL_I2SEx_FullDuplex_IRQHandler+0xc2>
 8002eea:	4b69      	ldr	r3, [pc, #420]	@ (8003090 <HAL_I2SEx_FullDuplex_IRQHandler+0x264>)
 8002eec:	e001      	b.n	8002ef2 <HAL_I2SEx_FullDuplex_IRQHandler+0xc6>
 8002eee:	f04f 2340 	mov.w	r3, #1073758208	@ 0x40004000
 8002ef2:	f022 0260 	bic.w	r2, r2, #96	@ 0x60
 8002ef6:	605a      	str	r2, [r3, #4]
 8002ef8:	687b      	ldr	r3, [r7, #4]
 8002efa:	681b      	ldr	r3, [r3, #0]
 8002efc:	685a      	ldr	r2, [r3, #4]
 8002efe:	687b      	ldr	r3, [r7, #4]
 8002f00:	681b      	ldr	r3, [r3, #0]
 8002f02:	f022 02a0 	bic.w	r2, r2, #160	@ 0xa0
 8002f06:	605a      	str	r2, [r3, #4]
 8002f08:	2300      	movs	r3, #0
 8002f0a:	60fb      	str	r3, [r7, #12]
 8002f0c:	687b      	ldr	r3, [r7, #4]
 8002f0e:	681b      	ldr	r3, [r3, #0]
 8002f10:	68db      	ldr	r3, [r3, #12]
 8002f12:	60fb      	str	r3, [r7, #12]
 8002f14:	687b      	ldr	r3, [r7, #4]
 8002f16:	681b      	ldr	r3, [r3, #0]
 8002f18:	689b      	ldr	r3, [r3, #8]
 8002f1a:	60fb      	str	r3, [r7, #12]
 8002f1c:	68fb      	ldr	r3, [r7, #12]
 8002f1e:	687b      	ldr	r3, [r7, #4]
 8002f20:	2201      	movs	r2, #1
 8002f22:	f883 2041 	strb.w	r2, [r3, #65]	@ 0x41
 8002f26:	687b      	ldr	r3, [r7, #4]
 8002f28:	6c5b      	ldr	r3, [r3, #68]	@ 0x44
 8002f2a:	f043 0202 	orr.w	r2, r3, #2
 8002f2e:	687b      	ldr	r3, [r7, #4]
 8002f30:	645a      	str	r2, [r3, #68]	@ 0x44
 8002f32:	6878      	ldr	r0, [r7, #4]
 8002f34:	f7ff fe34 	bl	8002ba0 <HAL_I2S_ErrorCallback>
 8002f38:	69fb      	ldr	r3, [r7, #28]
 8002f3a:	f003 0308 	and.w	r3, r3, #8
 8002f3e:	2b08      	cmp	r3, #8
 8002f40:	f040 80c3 	bne.w	80030ca <HAL_I2SEx_FullDuplex_IRQHandler+0x29e>
 8002f44:	697b      	ldr	r3, [r7, #20]
 8002f46:	f003 0320 	and.w	r3, r3, #32
 8002f4a:	2b00      	cmp	r3, #0
 8002f4c:	f000 80bd 	beq.w	80030ca <HAL_I2SEx_FullDuplex_IRQHandler+0x29e>
 8002f50:	687b      	ldr	r3, [r7, #4]
 8002f52:	681b      	ldr	r3, [r3, #0]
 8002f54:	685a      	ldr	r2, [r3, #4]
 8002f56:	687b      	ldr	r3, [r7, #4]
 8002f58:	681b      	ldr	r3, [r3, #0]
 8002f5a:	f022 02a0 	bic.w	r2, r2, #160	@ 0xa0
 8002f5e:	605a      	str	r2, [r3, #4]
 8002f60:	687b      	ldr	r3, [r7, #4]
 8002f62:	681b      	ldr	r3, [r3, #0]
 8002f64:	4a49      	ldr	r2, [pc, #292]	@ (800308c <HAL_I2SEx_FullDuplex_IRQHandler+0x260>)
 8002f66:	4293      	cmp	r3, r2
 8002f68:	d101      	bne.n	8002f6e <HAL_I2SEx_FullDuplex_IRQHandler+0x142>
 8002f6a:	4b49      	ldr	r3, [pc, #292]	@ (8003090 <HAL_I2SEx_FullDuplex_IRQHandler+0x264>)
 8002f6c:	e001      	b.n	8002f72 <HAL_I2SEx_FullDuplex_IRQHandler+0x146>
 8002f6e:	f04f 2340 	mov.w	r3, #1073758208	@ 0x40004000
 8002f72:	685a      	ldr	r2, [r3, #4]
 8002f74:	687b      	ldr	r3, [r7, #4]
 8002f76:	681b      	ldr	r3, [r3, #0]
 8002f78:	4944      	ldr	r1, [pc, #272]	@ (800308c <HAL_I2SEx_FullDuplex_IRQHandler+0x260>)
 8002f7a:	428b      	cmp	r3, r1
 8002f7c:	d101      	bne.n	8002f82 <HAL_I2SEx_FullDuplex_IRQHandler+0x156>
 8002f7e:	4b44      	ldr	r3, [pc, #272]	@ (8003090 <HAL_I2SEx_FullDuplex_IRQHandler+0x264>)
 8002f80:	e001      	b.n	8002f86 <HAL_I2SEx_FullDuplex_IRQHandler+0x15a>
 8002f82:	f04f 2340 	mov.w	r3, #1073758208	@ 0x40004000
 8002f86:	f022 0260 	bic.w	r2, r2, #96	@ 0x60
 8002f8a:	605a      	str	r2, [r3, #4]
 8002f8c:	2300      	movs	r3, #0
 8002f8e:	60bb      	str	r3, [r7, #8]
 8002f90:	687b      	ldr	r3, [r7, #4]
 8002f92:	681b      	ldr	r3, [r3, #0]
 8002f94:	689b      	ldr	r3, [r3, #8]
 8002f96:	60bb      	str	r3, [r7, #8]
 8002f98:	68bb      	ldr	r3, [r7, #8]
 8002f9a:	687b      	ldr	r3, [r7, #4]
 8002f9c:	2201      	movs	r2, #1
 8002f9e:	f883 2041 	strb.w	r2, [r3, #65]	@ 0x41
 8002fa2:	687b      	ldr	r3, [r7, #4]
 8002fa4:	6c5b      	ldr	r3, [r3, #68]	@ 0x44
 8002fa6:	f043 0204 	orr.w	r2, r3, #4
 8002faa:	687b      	ldr	r3, [r7, #4]
 8002fac:	645a      	str	r2, [r3, #68]	@ 0x44
 8002fae:	6878      	ldr	r0, [r7, #4]
 8002fb0:	f7ff fdf6 	bl	8002ba0 <HAL_I2S_ErrorCallback>
 8002fb4:	e089      	b.n	80030ca <HAL_I2SEx_FullDuplex_IRQHandler+0x29e>
 8002fb6:	69bb      	ldr	r3, [r7, #24]
 8002fb8:	f003 0302 	and.w	r3, r3, #2
 8002fbc:	2b02      	cmp	r3, #2
 8002fbe:	d107      	bne.n	8002fd0 <HAL_I2SEx_FullDuplex_IRQHandler+0x1a4>
 8002fc0:	693b      	ldr	r3, [r7, #16]
 8002fc2:	f003 0380 	and.w	r3, r3, #128	@ 0x80
 8002fc6:	2b00      	cmp	r3, #0
 8002fc8:	d002      	beq.n	8002fd0 <HAL_I2SEx_FullDuplex_IRQHandler+0x1a4>
 8002fca:	6878      	ldr	r0, [r7, #4]
 8002fcc:	f000 f8be 	bl	800314c <I2SEx_TxISR_I2SExt>
 8002fd0:	69fb      	ldr	r3, [r7, #28]
 8002fd2:	f003 0301 	and.w	r3, r3, #1
 8002fd6:	2b01      	cmp	r3, #1
 8002fd8:	d107      	bne.n	8002fea <HAL_I2SEx_FullDuplex_IRQHandler+0x1be>
 8002fda:	697b      	ldr	r3, [r7, #20]
 8002fdc:	f003 0340 	and.w	r3, r3, #64	@ 0x40
 8002fe0:	2b00      	cmp	r3, #0
 8002fe2:	d002      	beq.n	8002fea <HAL_I2SEx_FullDuplex_IRQHandler+0x1be>
 8002fe4:	6878      	ldr	r0, [r7, #4]
 8002fe6:	f000 f8fd 	bl	80031e4 <I2SEx_RxISR_I2S>
 8002fea:	69fb      	ldr	r3, [r7, #28]
 8002fec:	f003 0340 	and.w	r3, r3, #64	@ 0x40
 8002ff0:	2b40      	cmp	r3, #64	@ 0x40
 8002ff2:	d12f      	bne.n	8003054 <HAL_I2SEx_FullDuplex_IRQHandler+0x228>
 8002ff4:	697b      	ldr	r3, [r7, #20]
 8002ff6:	f003 0320 	and.w	r3, r3, #32
 8002ffa:	2b00      	cmp	r3, #0
 8002ffc:	d02a      	beq.n	8003054 <HAL_I2SEx_FullDuplex_IRQHandler+0x228>
 8002ffe:	687b      	ldr	r3, [r7, #4]
 8003000:	681b      	ldr	r3, [r3, #0]
 8003002:	685a      	ldr	r2, [r3, #4]
 8003004:	687b      	ldr	r3, [r7, #4]
 8003006:	681b      	ldr	r3, [r3, #0]
 8003008:	f022 0260 	bic.w	r2, r2, #96	@ 0x60
 800300c:	605a      	str	r2, [r3, #4]
 800300e:	687b      	ldr	r3, [r7, #4]
 8003010:	681b      	ldr	r3, [r3, #0]
 8003012:	4a1e      	ldr	r2, [pc, #120]	@ (800308c <HAL_I2SEx_FullDuplex_IRQHandler+0x260>)
 8003014:	4293      	cmp	r3, r2
 8003016:	d101      	bne.n	800301c <HAL_I2SEx_FullDuplex_IRQHandler+0x1f0>
 8003018:	4b1d      	ldr	r3, [pc, #116]	@ (8003090 <HAL_I2SEx_FullDuplex_IRQHandler+0x264>)
 800301a:	e001      	b.n	8003020 <HAL_I2SEx_FullDuplex_IRQHandler+0x1f4>
 800301c:	f04f 2340 	mov.w	r3, #1073758208	@ 0x40004000
 8003020:	685a      	ldr	r2, [r3, #4]
 8003022:	687b      	ldr	r3, [r7, #4]
 8003024:	681b      	ldr	r3, [r3, #0]
 8003026:	4919      	ldr	r1, [pc, #100]	@ (800308c <HAL_I2SEx_FullDuplex_IRQHandler+0x260>)
 8003028:	428b      	cmp	r3, r1
 800302a:	d101      	bne.n	8003030 <HAL_I2SEx_FullDuplex_IRQHandler+0x204>
 800302c:	4b18      	ldr	r3, [pc, #96]	@ (8003090 <HAL_I2SEx_FullDuplex_IRQHandler+0x264>)
 800302e:	e001      	b.n	8003034 <HAL_I2SEx_FullDuplex_IRQHandler+0x208>
 8003030:	f04f 2340 	mov.w	r3, #1073758208	@ 0x40004000
 8003034:	f022 02a0 	bic.w	r2, r2, #160	@ 0xa0
 8003038:	605a      	str	r2, [r3, #4]
 800303a:	687b      	ldr	r3, [r7, #4]
 800303c:	2201      	movs	r2, #1
 800303e:	f883 2041 	strb.w	r2, [r3, #65]	@ 0x41
 8003042:	687b      	ldr	r3, [r7, #4]
 8003044:	6c5b      	ldr	r3, [r3, #68]	@ 0x44
 8003046:	f043 0202 	orr.w	r2, r3, #2
 800304a:	687b      	ldr	r3, [r7, #4]
 800304c:	645a      	str	r2, [r3, #68]	@ 0x44
 800304e:	6878      	ldr	r0, [r7, #4]
 8003050:	f7ff fda6 	bl	8002ba0 <HAL_I2S_ErrorCallback>
 8003054:	69bb      	ldr	r3, [r7, #24]
 8003056:	f003 0308 	and.w	r3, r3, #8
 800305a:	2b08      	cmp	r3, #8
 800305c:	d136      	bne.n	80030cc <HAL_I2SEx_FullDuplex_IRQHandler+0x2a0>
 800305e:	693b      	ldr	r3, [r7, #16]
 8003060:	f003 0320 	and.w	r3, r3, #32
 8003064:	2b00      	cmp	r3, #0
 8003066:	d031      	beq.n	80030cc <HAL_I2SEx_FullDuplex_IRQHandler+0x2a0>
 8003068:	687b      	ldr	r3, [r7, #4]
 800306a:	681b      	ldr	r3, [r3, #0]
 800306c:	4a07      	ldr	r2, [pc, #28]	@ (800308c <HAL_I2SEx_FullDuplex_IRQHandler+0x260>)
 800306e:	4293      	cmp	r3, r2
 8003070:	d101      	bne.n	8003076 <HAL_I2SEx_FullDuplex_IRQHandler+0x24a>
 8003072:	4b07      	ldr	r3, [pc, #28]	@ (8003090 <HAL_I2SEx_FullDuplex_IRQHandler+0x264>)
 8003074:	e001      	b.n	800307a <HAL_I2SEx_FullDuplex_IRQHandler+0x24e>
 8003076:	f04f 2340 	mov.w	r3, #1073758208	@ 0x40004000
 800307a:	685a      	ldr	r2, [r3, #4]
 800307c:	687b      	ldr	r3, [r7, #4]
 800307e:	681b      	ldr	r3, [r3, #0]
 8003080:	4902      	ldr	r1, [pc, #8]	@ (800308c <HAL_I2SEx_FullDuplex_IRQHandler+0x260>)
 8003082:	428b      	cmp	r3, r1
 8003084:	d106      	bne.n	8003094 <HAL_I2SEx_FullDuplex_IRQHandler+0x268>
 8003086:	4b02      	ldr	r3, [pc, #8]	@ (8003090 <HAL_I2SEx_FullDuplex_IRQHandler+0x264>)
 8003088:	e006      	b.n	8003098 <HAL_I2SEx_FullDuplex_IRQHandler+0x26c>
 800308a:	bf00      	nop
 800308c:	40003800 	.word	0x40003800
 8003090:	40003400 	.word	0x40003400
 8003094:	f04f 2340 	mov.w	r3, #1073758208	@ 0x40004000
 8003098:	f022 02a0 	bic.w	r2, r2, #160	@ 0xa0
 800309c:	605a      	str	r2, [r3, #4]
 800309e:	687b      	ldr	r3, [r7, #4]
 80030a0:	681b      	ldr	r3, [r3, #0]
 80030a2:	685a      	ldr	r2, [r3, #4]
 80030a4:	687b      	ldr	r3, [r7, #4]
 80030a6:	681b      	ldr	r3, [r3, #0]
 80030a8:	f022 0260 	bic.w	r2, r2, #96	@ 0x60
 80030ac:	605a      	str	r2, [r3, #4]
 80030ae:	687b      	ldr	r3, [r7, #4]
 80030b0:	2201      	movs	r2, #1
 80030b2:	f883 2041 	strb.w	r2, [r3, #65]	@ 0x41
 80030b6:	687b      	ldr	r3, [r7, #4]
 80030b8:	6c5b      	ldr	r3, [r3, #68]	@ 0x44
 80030ba:	f043 0204 	orr.w	r2, r3, #4
 80030be:	687b      	ldr	r3, [r7, #4]
 80030c0:	645a      	str	r2, [r3, #68]	@ 0x44
 80030c2:	6878      	ldr	r0, [r7, #4]
 80030c4:	f7ff fd6c 	bl	8002ba0 <HAL_I2S_ErrorCallback>
 80030c8:	e000      	b.n	80030cc <HAL_I2SEx_FullDuplex_IRQHandler+0x2a0>
 80030ca:	bf00      	nop
 80030cc:	bf00      	nop
 80030ce:	3720      	adds	r7, #32
 80030d0:	46bd      	mov	sp, r7
 80030d2:	bd80      	pop	{r7, pc}

080030d4 <HAL_I2SEx_TxRxCpltCallback>:
 80030d4:	b480      	push	{r7}
 80030d6:	b083      	sub	sp, #12
 80030d8:	af00      	add	r7, sp, #0
 80030da:	6078      	str	r0, [r7, #4]
 80030dc:	bf00      	nop
 80030de:	370c      	adds	r7, #12
 80030e0:	46bd      	mov	sp, r7
 80030e2:	f85d 7b04 	ldr.w	r7, [sp], #4
 80030e6:	4770      	bx	lr

080030e8 <I2SEx_TxISR_I2S>:
 80030e8:	b580      	push	{r7, lr}
 80030ea:	b082      	sub	sp, #8
 80030ec:	af00      	add	r7, sp, #0
 80030ee:	6078      	str	r0, [r7, #4]
 80030f0:	687b      	ldr	r3, [r7, #4]
 80030f2:	6a5b      	ldr	r3, [r3, #36]	@ 0x24
 80030f4:	1c99      	adds	r1, r3, #2
 80030f6:	687a      	ldr	r2, [r7, #4]
 80030f8:	6251      	str	r1, [r2, #36]	@ 0x24
 80030fa:	881a      	ldrh	r2, [r3, #0]
 80030fc:	687b      	ldr	r3, [r7, #4]
 80030fe:	681b      	ldr	r3, [r3, #0]
 8003100:	60da      	str	r2, [r3, #12]
 8003102:	687b      	ldr	r3, [r7, #4]
 8003104:	8d5b      	ldrh	r3, [r3, #42]	@ 0x2a
 8003106:	b29b      	uxth	r3, r3
 8003108:	3b01      	subs	r3, #1
 800310a:	b29a      	uxth	r2, r3
 800310c:	687b      	ldr	r3, [r7, #4]
 800310e:	855a      	strh	r2, [r3, #42]	@ 0x2a
 8003110:	687b      	ldr	r3, [r7, #4]
 8003112:	8d5b      	ldrh	r3, [r3, #42]	@ 0x2a
 8003114:	b29b      	uxth	r3, r3
 8003116:	2b00      	cmp	r3, #0
 8003118:	d113      	bne.n	8003142 <I2SEx_TxISR_I2S+0x5a>
 800311a:	687b      	ldr	r3, [r7, #4]
 800311c:	681b      	ldr	r3, [r3, #0]
 800311e:	685a      	ldr	r2, [r3, #4]
 8003120:	687b      	ldr	r3, [r7, #4]
 8003122:	681b      	ldr	r3, [r3, #0]
 8003124:	f022 02a0 	bic.w	r2, r2, #160	@ 0xa0
 8003128:	605a      	str	r2, [r3, #4]
 800312a:	687b      	ldr	r3, [r7, #4]
 800312c:	8e5b      	ldrh	r3, [r3, #50]	@ 0x32
 800312e:	b29b      	uxth	r3, r3
 8003130:	2b00      	cmp	r3, #0
 8003132:	d106      	bne.n	8003142 <I2SEx_TxISR_I2S+0x5a>
 8003134:	687b      	ldr	r3, [r7, #4]
 8003136:	2201      	movs	r2, #1
 8003138:	f883 2041 	strb.w	r2, [r3, #65]	@ 0x41
 800313c:	6878      	ldr	r0, [r7, #4]
 800313e:	f7ff ffc9 	bl	80030d4 <HAL_I2SEx_TxRxCpltCallback>
 8003142:	bf00      	nop
 8003144:	3708      	adds	r7, #8
 8003146:	46bd      	mov	sp, r7
 8003148:	bd80      	pop	{r7, pc}
	...

0800314c <I2SEx_TxISR_I2SExt>:
 800314c:	b580      	push	{r7, lr}
 800314e:	b082      	sub	sp, #8
 8003150:	af00      	add	r7, sp, #0
 8003152:	6078      	str	r0, [r7, #4]
 8003154:	687b      	ldr	r3, [r7, #4]
 8003156:	6a5b      	ldr	r3, [r3, #36]	@ 0x24
 8003158:	1c99      	adds	r1, r3, #2
 800315a:	687a      	ldr	r2, [r7, #4]
 800315c:	6251      	str	r1, [r2, #36]	@ 0x24
 800315e:	8819      	ldrh	r1, [r3, #0]
 8003160:	687b      	ldr	r3, [r7, #4]
 8003162:	681b      	ldr	r3, [r3, #0]
 8003164:	4a1d      	ldr	r2, [pc, #116]	@ (80031dc <I2SEx_TxISR_I2SExt+0x90>)
 8003166:	4293      	cmp	r3, r2
 8003168:	d101      	bne.n	800316e <I2SEx_TxISR_I2SExt+0x22>
 800316a:	4b1d      	ldr	r3, [pc, #116]	@ (80031e0 <I2SEx_TxISR_I2SExt+0x94>)
 800316c:	e001      	b.n	8003172 <I2SEx_TxISR_I2SExt+0x26>
 800316e:	f04f 2340 	mov.w	r3, #1073758208	@ 0x40004000
 8003172:	460a      	mov	r2, r1
 8003174:	60da      	str	r2, [r3, #12]
 8003176:	687b      	ldr	r3, [r7, #4]
 8003178:	8d5b      	ldrh	r3, [r3, #42]	@ 0x2a
 800317a:	b29b      	uxth	r3, r3
 800317c:	3b01      	subs	r3, #1
 800317e:	b29a      	uxth	r2, r3
 8003180:	687b      	ldr	r3, [r7, #4]
 8003182:	855a      	strh	r2, [r3, #42]	@ 0x2a
 8003184:	687b      	ldr	r3, [r7, #4]
 8003186:	8d5b      	ldrh	r3, [r3, #42]	@ 0x2a
 8003188:	b29b      	uxth	r3, r3
 800318a:	2b00      	cmp	r3, #0
 800318c:	d121      	bne.n	80031d2 <I2SEx_TxISR_I2SExt+0x86>
 800318e:	687b      	ldr	r3, [r7, #4]
 8003190:	681b      	ldr	r3, [r3, #0]
 8003192:	4a12      	ldr	r2, [pc, #72]	@ (80031dc <I2SEx_TxISR_I2SExt+0x90>)
 8003194:	4293      	cmp	r3, r2
 8003196:	d101      	bne.n	800319c <I2SEx_TxISR_I2SExt+0x50>
 8003198:	4b11      	ldr	r3, [pc, #68]	@ (80031e0 <I2SEx_TxISR_I2SExt+0x94>)
 800319a:	e001      	b.n	80031a0 <I2SEx_TxISR_I2SExt+0x54>
 800319c:	f04f 2340 	mov.w	r3, #1073758208	@ 0x40004000
 80031a0:	685a      	ldr	r2, [r3, #4]
 80031a2:	687b      	ldr	r3, [r7, #4]
 80031a4:	681b      	ldr	r3, [r3, #0]
 80031a6:	490d      	ldr	r1, [pc, #52]	@ (80031dc <I2SEx_TxISR_I2SExt+0x90>)
 80031a8:	428b      	cmp	r3, r1
 80031aa:	d101      	bne.n	80031b0 <I2SEx_TxISR_I2SExt+0x64>
 80031ac:	4b0c      	ldr	r3, [pc, #48]	@ (80031e0 <I2SEx_TxISR_I2SExt+0x94>)
 80031ae:	e001      	b.n	80031b4 <I2SEx_TxISR_I2SExt+0x68>
 80031b0:	f04f 2340 	mov.w	r3, #1073758208	@ 0x40004000
 80031b4:	f022 02a0 	bic.w	r2, r2, #160	@ 0xa0
 80031b8:	605a      	str	r2, [r3, #4]
 80031ba:	687b      	ldr	r3, [r7, #4]
 80031bc:	8e5b      	ldrh	r3, [r3, #50]	@ 0x32
 80031be:	b29b      	uxth	r3, r3
 80031c0:	2b00      	cmp	r3, #0
 80031c2:	d106      	bne.n	80031d2 <I2SEx_TxISR_I2SExt+0x86>
 80031c4:	687b      	ldr	r3, [r7, #4]
 80031c6:	2201      	movs	r2, #1
 80031c8:	f883 2041 	strb.w	r2, [r3, #65]	@ 0x41
 80031cc:	6878      	ldr	r0, [r7, #4]
 80031ce:	f7ff ff81 	bl	80030d4 <HAL_I2SEx_TxRxCpltCallback>
 80031d2:	bf00      	nop
 80031d4:	3708      	adds	r7, #8
 80031d6:	46bd      	mov	sp, r7
 80031d8:	bd80      	pop	{r7, pc}
 80031da:	bf00      	nop
 80031dc:	40003800 	.word	0x40003800
 80031e0:	40003400 	.word	0x40003400

080031e4 <I2SEx_RxISR_I2S>:
 80031e4:	b580      	push	{r7, lr}
 80031e6:	b082      	sub	sp, #8
 80031e8:	af00      	add	r7, sp, #0
 80031ea:	6078      	str	r0, [r7, #4]
 80031ec:	687b      	ldr	r3, [r7, #4]
 80031ee:	681b      	ldr	r3, [r3, #0]
 80031f0:	68d8      	ldr	r0, [r3, #12]
 80031f2:	687b      	ldr	r3, [r7, #4]
 80031f4:	6adb      	ldr	r3, [r3, #44]	@ 0x2c
 80031f6:	1c99      	adds	r1, r3, #2
 80031f8:	687a      	ldr	r2, [r7, #4]
 80031fa:	62d1      	str	r1, [r2, #44]	@ 0x2c
 80031fc:	b282      	uxth	r2, r0
 80031fe:	801a      	strh	r2, [r3, #0]
 8003200:	687b      	ldr	r3, [r7, #4]
 8003202:	8e5b      	ldrh	r3, [r3, #50]	@ 0x32
 8003204:	b29b      	uxth	r3, r3
 8003206:	3b01      	subs	r3, #1
 8003208:	b29a      	uxth	r2, r3
 800320a:	687b      	ldr	r3, [r7, #4]
 800320c:	865a      	strh	r2, [r3, #50]	@ 0x32
 800320e:	687b      	ldr	r3, [r7, #4]
 8003210:	8e5b      	ldrh	r3, [r3, #50]	@ 0x32
 8003212:	b29b      	uxth	r3, r3
 8003214:	2b00      	cmp	r3, #0
 8003216:	d113      	bne.n	8003240 <I2SEx_RxISR_I2S+0x5c>
 8003218:	687b      	ldr	r3, [r7, #4]
 800321a:	681b      	ldr	r3, [r3, #0]
 800321c:	685a      	ldr	r2, [r3, #4]
 800321e:	687b      	ldr	r3, [r7, #4]
 8003220:	681b      	ldr	r3, [r3, #0]
 8003222:	f022 0260 	bic.w	r2, r2, #96	@ 0x60
 8003226:	605a      	str	r2, [r3, #4]
 8003228:	687b      	ldr	r3, [r7, #4]
 800322a:	8d5b      	ldrh	r3, [r3, #42]	@ 0x2a
 800322c:	b29b      	uxth	r3, r3
 800322e:	2b00      	cmp	r3, #0
 8003230:	d106      	bne.n	8003240 <I2SEx_RxISR_I2S+0x5c>
 8003232:	687b      	ldr	r3, [r7, #4]
 8003234:	2201      	movs	r2, #1
 8003236:	f883 2041 	strb.w	r2, [r3, #65]	@ 0x41
 800323a:	6878      	ldr	r0, [r7, #4]
 800323c:	f7ff ff4a 	bl	80030d4 <HAL_I2SEx_TxRxCpltCallback>
 8003240:	bf00      	nop
 8003242:	3708      	adds	r7, #8
 8003244:	46bd      	mov	sp, r7
 8003246:	bd80      	pop	{r7, pc}

08003248 <I2SEx_RxISR_I2SExt>:
 8003248:	b580      	push	{r7, lr}
 800324a:	b082      	sub	sp, #8
 800324c:	af00      	add	r7, sp, #0
 800324e:	6078      	str	r0, [r7, #4]
 8003250:	687b      	ldr	r3, [r7, #4]
 8003252:	681b      	ldr	r3, [r3, #0]
 8003254:	4a20      	ldr	r2, [pc, #128]	@ (80032d8 <I2SEx_RxISR_I2SExt+0x90>)
 8003256:	4293      	cmp	r3, r2
 8003258:	d101      	bne.n	800325e <I2SEx_RxISR_I2SExt+0x16>
 800325a:	4b20      	ldr	r3, [pc, #128]	@ (80032dc <I2SEx_RxISR_I2SExt+0x94>)
 800325c:	e001      	b.n	8003262 <I2SEx_RxISR_I2SExt+0x1a>
 800325e:	f04f 2340 	mov.w	r3, #1073758208	@ 0x40004000
 8003262:	68d8      	ldr	r0, [r3, #12]
 8003264:	687b      	ldr	r3, [r7, #4]
 8003266:	6adb      	ldr	r3, [r3, #44]	@ 0x2c
 8003268:	1c99      	adds	r1, r3, #2
 800326a:	687a      	ldr	r2, [r7, #4]
 800326c:	62d1      	str	r1, [r2, #44]	@ 0x2c
 800326e:	b282      	uxth	r2, r0
 8003270:	801a      	strh	r2, [r3, #0]
 8003272:	687b      	ldr	r3, [r7, #4]
 8003274:	8e5b      	ldrh	r3, [r3, #50]	@ 0x32
 8003276:	b29b      	uxth	r3, r3
 8003278:	3b01      	subs	r3, #1
 800327a:	b29a      	uxth	r2, r3
 800327c:	687b      	ldr	r3, [r7, #4]
 800327e:	865a      	strh	r2, [r3, #50]	@ 0x32
 8003280:	687b      	ldr	r3, [r7, #4]
 8003282:	8e5b      	ldrh	r3, [r3, #50]	@ 0x32
 8003284:	b29b      	uxth	r3, r3
 8003286:	2b00      	cmp	r3, #0
 8003288:	d121      	bne.n	80032ce <I2SEx_RxISR_I2SExt+0x86>
 800328a:	687b      	ldr	r3, [r7, #4]
 800328c:	681b      	ldr	r3, [r3, #0]
 800328e:	4a12      	ldr	r2, [pc, #72]	@ (80032d8 <I2SEx_RxISR_I2SExt+0x90>)
 8003290:	4293      	cmp	r3, r2
 8003292:	d101      	bne.n	8003298 <I2SEx_RxISR_I2SExt+0x50>
 8003294:	4b11      	ldr	r3, [pc, #68]	@ (80032dc <I2SEx_RxISR_I2SExt+0x94>)
 8003296:	e001      	b.n	800329c <I2SEx_RxISR_I2SExt+0x54>
 8003298:	f04f 2340 	mov.w	r3, #1073758208	@ 0x40004000
 800329c:	685a      	ldr	r2, [r3, #4]
 800329e:	687b      	ldr	r3, [r7, #4]
 80032a0:	681b      	ldr	r3, [r3, #0]
 80032a2:	490d      	ldr	r1, [pc, #52]	@ (80032d8 <I2SEx_RxISR_I2SExt+0x90>)
 80032a4:	428b      	cmp	r3, r1
 80032a6:	d101      	bne.n	80032ac <I2SEx_RxISR_I2SExt+0x64>
 80032a8:	4b0c      	ldr	r3, [pc, #48]	@ (80032dc <I2SEx_RxISR_I2SExt+0x94>)
 80032aa:	e001      	b.n	80032b0 <I2SEx_RxISR_I2SExt+0x68>
 80032ac:	f04f 2340 	mov.w	r3, #1073758208	@ 0x40004000
 80032b0:	f022 0260 	bic.w	r2, r2, #96	@ 0x60
 80032b4:	605a      	str	r2, [r3, #4]
 80032b6:	687b      	ldr	r3, [r7, #4]
 80032b8:	8d5b      	ldrh	r3, [r3, #42]	@ 0x2a
 80032ba:	b29b      	uxth	r3, r3
 80032bc:	2b00      	cmp	r3, #0
 80032be:	d106      	bne.n	80032ce <I2SEx_RxISR_I2SExt+0x86>
 80032c0:	687b      	ldr	r3, [r7, #4]
 80032c2:	2201      	movs	r2, #1
 80032c4:	f883 2041 	strb.w	r2, [r3, #65]	@ 0x41
 80032c8:	6878      	ldr	r0, [r7, #4]
 80032ca:	f7ff ff03 	bl	80030d4 <HAL_I2SEx_TxRxCpltCallback>
 80032ce:	bf00      	nop
 80032d0:	3708      	adds	r7, #8
 80032d2:	46bd      	mov	sp, r7
 80032d4:	bd80      	pop	{r7, pc}
 80032d6:	bf00      	nop
 80032d8:	40003800 	.word	0x40003800
 80032dc:	40003400 	.word	0x40003400

080032e0 <HAL_RCC_OscConfig>:
 80032e0:	b580      	push	{r7, lr}
 80032e2:	b086      	sub	sp, #24
 80032e4:	af00      	add	r7, sp, #0
 80032e6:	6078      	str	r0, [r7, #4]
 80032e8:	687b      	ldr	r3, [r7, #4]
 80032ea:	2b00      	cmp	r3, #0
 80032ec:	d101      	bne.n	80032f2 <HAL_RCC_OscConfig+0x12>
 80032ee:	2301      	movs	r3, #1
 80032f0:	e267      	b.n	80037c2 <HAL_RCC_OscConfig+0x4e2>
 80032f2:	687b      	ldr	r3, [r7, #4]
 80032f4:	681b      	ldr	r3, [r3, #0]
 80032f6:	f003 0301 	and.w	r3, r3, #1
 80032fa:	2b00      	cmp	r3, #0
 80032fc:	d075      	beq.n	80033ea <HAL_RCC_OscConfig+0x10a>
 80032fe:	4b88      	ldr	r3, [pc, #544]	@ (8003520 <HAL_RCC_OscConfig+0x240>)
 8003300:	689b      	ldr	r3, [r3, #8]
 8003302:	f003 030c 	and.w	r3, r3, #12
 8003306:	2b04      	cmp	r3, #4
 8003308:	d00c      	beq.n	8003324 <HAL_RCC_OscConfig+0x44>
 800330a:	4b85      	ldr	r3, [pc, #532]	@ (8003520 <HAL_RCC_OscConfig+0x240>)
 800330c:	689b      	ldr	r3, [r3, #8]
 800330e:	f003 030c 	and.w	r3, r3, #12
 8003312:	2b08      	cmp	r3, #8
 8003314:	d112      	bne.n	800333c <HAL_RCC_OscConfig+0x5c>
 8003316:	4b82      	ldr	r3, [pc, #520]	@ (8003520 <HAL_RCC_OscConfig+0x240>)
 8003318:	685b      	ldr	r3, [r3, #4]
 800331a:	f403 0380 	and.w	r3, r3, #4194304	@ 0x400000
 800331e:	f5b3 0f80 	cmp.w	r3, #4194304	@ 0x400000
 8003322:	d10b      	bne.n	800333c <HAL_RCC_OscConfig+0x5c>
 8003324:	4b7e      	ldr	r3, [pc, #504]	@ (8003520 <HAL_RCC_OscConfig+0x240>)
 8003326:	681b      	ldr	r3, [r3, #0]
 8003328:	f403 3300 	and.w	r3, r3, #131072	@ 0x20000
 800332c:	2b00      	cmp	r3, #0
 800332e:	d05b      	beq.n	80033e8 <HAL_RCC_OscConfig+0x108>
 8003330:	687b      	ldr	r3, [r7, #4]
 8003332:	685b      	ldr	r3, [r3, #4]
 8003334:	2b00      	cmp	r3, #0
 8003336:	d157      	bne.n	80033e8 <HAL_RCC_OscConfig+0x108>
 8003338:	2301      	movs	r3, #1
 800333a:	e242      	b.n	80037c2 <HAL_RCC_OscConfig+0x4e2>
 800333c:	687b      	ldr	r3, [r7, #4]
 800333e:	685b      	ldr	r3, [r3, #4]
 8003340:	f5b3 3f80 	cmp.w	r3, #65536	@ 0x10000
 8003344:	d106      	bne.n	8003354 <HAL_RCC_OscConfig+0x74>
 8003346:	4b76      	ldr	r3, [pc, #472]	@ (8003520 <HAL_RCC_OscConfig+0x240>)
 8003348:	681b      	ldr	r3, [r3, #0]
 800334a:	4a75      	ldr	r2, [pc, #468]	@ (8003520 <HAL_RCC_OscConfig+0x240>)
 800334c:	f443 3380 	orr.w	r3, r3, #65536	@ 0x10000
 8003350:	6013      	str	r3, [r2, #0]
 8003352:	e01d      	b.n	8003390 <HAL_RCC_OscConfig+0xb0>
 8003354:	687b      	ldr	r3, [r7, #4]
 8003356:	685b      	ldr	r3, [r3, #4]
 8003358:	f5b3 2fa0 	cmp.w	r3, #327680	@ 0x50000
 800335c:	d10c      	bne.n	8003378 <HAL_RCC_OscConfig+0x98>
 800335e:	4b70      	ldr	r3, [pc, #448]	@ (8003520 <HAL_RCC_OscConfig+0x240>)
 8003360:	681b      	ldr	r3, [r3, #0]
 8003362:	4a6f      	ldr	r2, [pc, #444]	@ (8003520 <HAL_RCC_OscConfig+0x240>)
 8003364:	f443 2380 	orr.w	r3, r3, #262144	@ 0x40000
 8003368:	6013      	str	r3, [r2, #0]
 800336a:	4b6d      	ldr	r3, [pc, #436]	@ (8003520 <HAL_RCC_OscConfig+0x240>)
 800336c:	681b      	ldr	r3, [r3, #0]
 800336e:	4a6c      	ldr	r2, [pc, #432]	@ (8003520 <HAL_RCC_OscConfig+0x240>)
 8003370:	f443 3380 	orr.w	r3, r3, #65536	@ 0x10000
 8003374:	6013      	str	r3, [r2, #0]
 8003376:	e00b      	b.n	8003390 <HAL_RCC_OscConfig+0xb0>
 8003378:	4b69      	ldr	r3, [pc, #420]	@ (8003520 <HAL_RCC_OscConfig+0x240>)
 800337a:	681b      	ldr	r3, [r3, #0]
 800337c:	4a68      	ldr	r2, [pc, #416]	@ (8003520 <HAL_RCC_OscConfig+0x240>)
 800337e:	f423 3380 	bic.w	r3, r3, #65536	@ 0x10000
 8003382:	6013      	str	r3, [r2, #0]
 8003384:	4b66      	ldr	r3, [pc, #408]	@ (8003520 <HAL_RCC_OscConfig+0x240>)
 8003386:	681b      	ldr	r3, [r3, #0]
 8003388:	4a65      	ldr	r2, [pc, #404]	@ (8003520 <HAL_RCC_OscConfig+0x240>)
 800338a:	f423 2380 	bic.w	r3, r3, #262144	@ 0x40000
 800338e:	6013      	str	r3, [r2, #0]
 8003390:	687b      	ldr	r3, [r7, #4]
 8003392:	685b      	ldr	r3, [r3, #4]
 8003394:	2b00      	cmp	r3, #0
 8003396:	d013      	beq.n	80033c0 <HAL_RCC_OscConfig+0xe0>
 8003398:	f7fd fef6 	bl	8001188 <HAL_GetTick>
 800339c:	6138      	str	r0, [r7, #16]
 800339e:	e008      	b.n	80033b2 <HAL_RCC_OscConfig+0xd2>
 80033a0:	f7fd fef2 	bl	8001188 <HAL_GetTick>
 80033a4:	4602      	mov	r2, r0
 80033a6:	693b      	ldr	r3, [r7, #16]
 80033a8:	1ad3      	subs	r3, r2, r3
 80033aa:	2b64      	cmp	r3, #100	@ 0x64
 80033ac:	d901      	bls.n	80033b2 <HAL_RCC_OscConfig+0xd2>
 80033ae:	2303      	movs	r3, #3
 80033b0:	e207      	b.n	80037c2 <HAL_RCC_OscConfig+0x4e2>
 80033b2:	4b5b      	ldr	r3, [pc, #364]	@ (8003520 <HAL_RCC_OscConfig+0x240>)
 80033b4:	681b      	ldr	r3, [r3, #0]
 80033b6:	f403 3300 	and.w	r3, r3, #131072	@ 0x20000
 80033ba:	2b00      	cmp	r3, #0
 80033bc:	d0f0      	beq.n	80033a0 <HAL_RCC_OscConfig+0xc0>
 80033be:	e014      	b.n	80033ea <HAL_RCC_OscConfig+0x10a>
 80033c0:	f7fd fee2 	bl	8001188 <HAL_GetTick>
 80033c4:	6138      	str	r0, [r7, #16]
 80033c6:	e008      	b.n	80033da <HAL_RCC_OscConfig+0xfa>
 80033c8:	f7fd fede 	bl	8001188 <HAL_GetTick>
 80033cc:	4602      	mov	r2, r0
 80033ce:	693b      	ldr	r3, [r7, #16]
 80033d0:	1ad3      	subs	r3, r2, r3
 80033d2:	2b64      	cmp	r3, #100	@ 0x64
 80033d4:	d901      	bls.n	80033da <HAL_RCC_OscConfig+0xfa>
 80033d6:	2303      	movs	r3, #3
 80033d8:	e1f3      	b.n	80037c2 <HAL_RCC_OscConfig+0x4e2>
 80033da:	4b51      	ldr	r3, [pc, #324]	@ (8003520 <HAL_RCC_OscConfig+0x240>)
 80033dc:	681b      	ldr	r3, [r3, #0]
 80033de:	f403 3300 	and.w	r3, r3, #131072	@ 0x20000
 80033e2:	2b00      	cmp	r3, #0
 80033e4:	d1f0      	bne.n	80033c8 <HAL_RCC_OscConfig+0xe8>
 80033e6:	e000      	b.n	80033ea <HAL_RCC_OscConfig+0x10a>
 80033e8:	bf00      	nop
 80033ea:	687b      	ldr	r3, [r7, #4]
 80033ec:	681b      	ldr	r3, [r3, #0]
 80033ee:	f003 0302 	and.w	r3, r3, #2
 80033f2:	2b00      	cmp	r3, #0
 80033f4:	d063      	beq.n	80034be <HAL_RCC_OscConfig+0x1de>
 80033f6:	4b4a      	ldr	r3, [pc, #296]	@ (8003520 <HAL_RCC_OscConfig+0x240>)
 80033f8:	689b      	ldr	r3, [r3, #8]
 80033fa:	f003 030c 	and.w	r3, r3, #12
 80033fe:	2b00      	cmp	r3, #0
 8003400:	d00b      	beq.n	800341a <HAL_RCC_OscConfig+0x13a>
 8003402:	4b47      	ldr	r3, [pc, #284]	@ (8003520 <HAL_RCC_OscConfig+0x240>)
 8003404:	689b      	ldr	r3, [r3, #8]
 8003406:	f003 030c 	and.w	r3, r3, #12
 800340a:	2b08      	cmp	r3, #8
 800340c:	d11c      	bne.n	8003448 <HAL_RCC_OscConfig+0x168>
 800340e:	4b44      	ldr	r3, [pc, #272]	@ (8003520 <HAL_RCC_OscConfig+0x240>)
 8003410:	685b      	ldr	r3, [r3, #4]
 8003412:	f403 0380 	and.w	r3, r3, #4194304	@ 0x400000
 8003416:	2b00      	cmp	r3, #0
 8003418:	d116      	bne.n	8003448 <HAL_RCC_OscConfig+0x168>
 800341a:	4b41      	ldr	r3, [pc, #260]	@ (8003520 <HAL_RCC_OscConfig+0x240>)
 800341c:	681b      	ldr	r3, [r3, #0]
 800341e:	f003 0302 	and.w	r3, r3, #2
 8003422:	2b00      	cmp	r3, #0
 8003424:	d005      	beq.n	8003432 <HAL_RCC_OscConfig+0x152>
 8003426:	687b      	ldr	r3, [r7, #4]
 8003428:	68db      	ldr	r3, [r3, #12]
 800342a:	2b01      	cmp	r3, #1
 800342c:	d001      	beq.n	8003432 <HAL_RCC_OscConfig+0x152>
 800342e:	2301      	movs	r3, #1
 8003430:	e1c7      	b.n	80037c2 <HAL_RCC_OscConfig+0x4e2>
 8003432:	4b3b      	ldr	r3, [pc, #236]	@ (8003520 <HAL_RCC_OscConfig+0x240>)
 8003434:	681b      	ldr	r3, [r3, #0]
 8003436:	f023 02f8 	bic.w	r2, r3, #248	@ 0xf8
 800343a:	687b      	ldr	r3, [r7, #4]
 800343c:	691b      	ldr	r3, [r3, #16]
 800343e:	00db      	lsls	r3, r3, #3
 8003440:	4937      	ldr	r1, [pc, #220]	@ (8003520 <HAL_RCC_OscConfig+0x240>)
 8003442:	4313      	orrs	r3, r2
 8003444:	600b      	str	r3, [r1, #0]
 8003446:	e03a      	b.n	80034be <HAL_RCC_OscConfig+0x1de>
 8003448:	687b      	ldr	r3, [r7, #4]
 800344a:	68db      	ldr	r3, [r3, #12]
 800344c:	2b00      	cmp	r3, #0
 800344e:	d020      	beq.n	8003492 <HAL_RCC_OscConfig+0x1b2>
 8003450:	4b34      	ldr	r3, [pc, #208]	@ (8003524 <HAL_RCC_OscConfig+0x244>)
 8003452:	2201      	movs	r2, #1
 8003454:	601a      	str	r2, [r3, #0]
 8003456:	f7fd fe97 	bl	8001188 <HAL_GetTick>
 800345a:	6138      	str	r0, [r7, #16]
 800345c:	e008      	b.n	8003470 <HAL_RCC_OscConfig+0x190>
 800345e:	f7fd fe93 	bl	8001188 <HAL_GetTick>
 8003462:	4602      	mov	r2, r0
 8003464:	693b      	ldr	r3, [r7, #16]
 8003466:	1ad3      	subs	r3, r2, r3
 8003468:	2b02      	cmp	r3, #2
 800346a:	d901      	bls.n	8003470 <HAL_RCC_OscConfig+0x190>
 800346c:	2303      	movs	r3, #3
 800346e:	e1a8      	b.n	80037c2 <HAL_RCC_OscConfig+0x4e2>
 8003470:	4b2b      	ldr	r3, [pc, #172]	@ (8003520 <HAL_RCC_OscConfig+0x240>)
 8003472:	681b      	ldr	r3, [r3, #0]
 8003474:	f003 0302 	and.w	r3, r3, #2
 8003478:	2b00      	cmp	r3, #0
 800347a:	d0f0      	beq.n	800345e <HAL_RCC_OscConfig+0x17e>
 800347c:	4b28      	ldr	r3, [pc, #160]	@ (8003520 <HAL_RCC_OscConfig+0x240>)
 800347e:	681b      	ldr	r3, [r3, #0]
 8003480:	f023 02f8 	bic.w	r2, r3, #248	@ 0xf8
 8003484:	687b      	ldr	r3, [r7, #4]
 8003486:	691b      	ldr	r3, [r3, #16]
 8003488:	00db      	lsls	r3, r3, #3
 800348a:	4925      	ldr	r1, [pc, #148]	@ (8003520 <HAL_RCC_OscConfig+0x240>)
 800348c:	4313      	orrs	r3, r2
 800348e:	600b      	str	r3, [r1, #0]
 8003490:	e015      	b.n	80034be <HAL_RCC_OscConfig+0x1de>
 8003492:	4b24      	ldr	r3, [pc, #144]	@ (8003524 <HAL_RCC_OscConfig+0x244>)
 8003494:	2200      	movs	r2, #0
 8003496:	601a      	str	r2, [r3, #0]
 8003498:	f7fd fe76 	bl	8001188 <HAL_GetTick>
 800349c:	6138      	str	r0, [r7, #16]
 800349e:	e008      	b.n	80034b2 <HAL_RCC_OscConfig+0x1d2>
 80034a0:	f7fd fe72 	bl	8001188 <HAL_GetTick>
 80034a4:	4602      	mov	r2, r0
 80034a6:	693b      	ldr	r3, [r7, #16]
 80034a8:	1ad3      	subs	r3, r2, r3
 80034aa:	2b02      	cmp	r3, #2
 80034ac:	d901      	bls.n	80034b2 <HAL_RCC_OscConfig+0x1d2>
 80034ae:	2303      	movs	r3, #3
 80034b0:	e187      	b.n	80037c2 <HAL_RCC_OscConfig+0x4e2>
 80034b2:	4b1b      	ldr	r3, [pc, #108]	@ (8003520 <HAL_RCC_OscConfig+0x240>)
 80034b4:	681b      	ldr	r3, [r3, #0]
 80034b6:	f003 0302 	and.w	r3, r3, #2
 80034ba:	2b00      	cmp	r3, #0
 80034bc:	d1f0      	bne.n	80034a0 <HAL_RCC_OscConfig+0x1c0>
 80034be:	687b      	ldr	r3, [r7, #4]
 80034c0:	681b      	ldr	r3, [r3, #0]
 80034c2:	f003 0308 	and.w	r3, r3, #8
 80034c6:	2b00      	cmp	r3, #0
 80034c8:	d036      	beq.n	8003538 <HAL_RCC_OscConfig+0x258>
 80034ca:	687b      	ldr	r3, [r7, #4]
 80034cc:	695b      	ldr	r3, [r3, #20]
 80034ce:	2b00      	cmp	r3, #0
 80034d0:	d016      	beq.n	8003500 <HAL_RCC_OscConfig+0x220>
 80034d2:	4b15      	ldr	r3, [pc, #84]	@ (8003528 <HAL_RCC_OscConfig+0x248>)
 80034d4:	2201      	movs	r2, #1
 80034d6:	601a      	str	r2, [r3, #0]
 80034d8:	f7fd fe56 	bl	8001188 <HAL_GetTick>
 80034dc:	6138      	str	r0, [r7, #16]
 80034de:	e008      	b.n	80034f2 <HAL_RCC_OscConfig+0x212>
 80034e0:	f7fd fe52 	bl	8001188 <HAL_GetTick>
 80034e4:	4602      	mov	r2, r0
 80034e6:	693b      	ldr	r3, [r7, #16]
 80034e8:	1ad3      	subs	r3, r2, r3
 80034ea:	2b02      	cmp	r3, #2
 80034ec:	d901      	bls.n	80034f2 <HAL_RCC_OscConfig+0x212>
 80034ee:	2303      	movs	r3, #3
 80034f0:	e167      	b.n	80037c2 <HAL_RCC_OscConfig+0x4e2>
 80034f2:	4b0b      	ldr	r3, [pc, #44]	@ (8003520 <HAL_RCC_OscConfig+0x240>)
 80034f4:	6f5b      	ldr	r3, [r3, #116]	@ 0x74
 80034f6:	f003 0302 	and.w	r3, r3, #2
 80034fa:	2b00      	cmp	r3, #0
 80034fc:	d0f0      	beq.n	80034e0 <HAL_RCC_OscConfig+0x200>
 80034fe:	e01b      	b.n	8003538 <HAL_RCC_OscConfig+0x258>
 8003500:	4b09      	ldr	r3, [pc, #36]	@ (8003528 <HAL_RCC_OscConfig+0x248>)
 8003502:	2200      	movs	r2, #0
 8003504:	601a      	str	r2, [r3, #0]
 8003506:	f7fd fe3f 	bl	8001188 <HAL_GetTick>
 800350a:	6138      	str	r0, [r7, #16]
 800350c:	e00e      	b.n	800352c <HAL_RCC_OscConfig+0x24c>
 800350e:	f7fd fe3b 	bl	8001188 <HAL_GetTick>
 8003512:	4602      	mov	r2, r0
 8003514:	693b      	ldr	r3, [r7, #16]
 8003516:	1ad3      	subs	r3, r2, r3
 8003518:	2b02      	cmp	r3, #2
 800351a:	d907      	bls.n	800352c <HAL_RCC_OscConfig+0x24c>
 800351c:	2303      	movs	r3, #3
 800351e:	e150      	b.n	80037c2 <HAL_RCC_OscConfig+0x4e2>
 8003520:	40023800 	.word	0x40023800
 8003524:	42470000 	.word	0x42470000
 8003528:	42470e80 	.word	0x42470e80
 800352c:	4b88      	ldr	r3, [pc, #544]	@ (8003750 <HAL_RCC_OscConfig+0x470>)
 800352e:	6f5b      	ldr	r3, [r3, #116]	@ 0x74
 8003530:	f003 0302 	and.w	r3, r3, #2
 8003534:	2b00      	cmp	r3, #0
 8003536:	d1ea      	bne.n	800350e <HAL_RCC_OscConfig+0x22e>
 8003538:	687b      	ldr	r3, [r7, #4]
 800353a:	681b      	ldr	r3, [r3, #0]
 800353c:	f003 0304 	and.w	r3, r3, #4
 8003540:	2b00      	cmp	r3, #0
 8003542:	f000 8097 	beq.w	8003674 <HAL_RCC_OscConfig+0x394>
 8003546:	2300      	movs	r3, #0
 8003548:	75fb      	strb	r3, [r7, #23]
 800354a:	4b81      	ldr	r3, [pc, #516]	@ (8003750 <HAL_RCC_OscConfig+0x470>)
 800354c:	6c1b      	ldr	r3, [r3, #64]	@ 0x40
 800354e:	f003 5380 	and.w	r3, r3, #268435456	@ 0x10000000
 8003552:	2b00      	cmp	r3, #0
 8003554:	d10f      	bne.n	8003576 <HAL_RCC_OscConfig+0x296>
 8003556:	2300      	movs	r3, #0
 8003558:	60bb      	str	r3, [r7, #8]
 800355a:	4b7d      	ldr	r3, [pc, #500]	@ (8003750 <HAL_RCC_OscConfig+0x470>)
 800355c:	6c1b      	ldr	r3, [r3, #64]	@ 0x40
 800355e:	4a7c      	ldr	r2, [pc, #496]	@ (8003750 <HAL_RCC_OscConfig+0x470>)
 8003560:	f043 5380 	orr.w	r3, r3, #268435456	@ 0x10000000
 8003564:	6413      	str	r3, [r2, #64]	@ 0x40
 8003566:	4b7a      	ldr	r3, [pc, #488]	@ (8003750 <HAL_RCC_OscConfig+0x470>)
 8003568:	6c1b      	ldr	r3, [r3, #64]	@ 0x40
 800356a:	f003 5380 	and.w	r3, r3, #268435456	@ 0x10000000
 800356e:	60bb      	str	r3, [r7, #8]
 8003570:	68bb      	ldr	r3, [r7, #8]
 8003572:	2301      	movs	r3, #1
 8003574:	75fb      	strb	r3, [r7, #23]
 8003576:	4b77      	ldr	r3, [pc, #476]	@ (8003754 <HAL_RCC_OscConfig+0x474>)
 8003578:	681b      	ldr	r3, [r3, #0]
 800357a:	f403 7380 	and.w	r3, r3, #256	@ 0x100
 800357e:	2b00      	cmp	r3, #0
 8003580:	d118      	bne.n	80035b4 <HAL_RCC_OscConfig+0x2d4>
 8003582:	4b74      	ldr	r3, [pc, #464]	@ (8003754 <HAL_RCC_OscConfig+0x474>)
 8003584:	681b      	ldr	r3, [r3, #0]
 8003586:	4a73      	ldr	r2, [pc, #460]	@ (8003754 <HAL_RCC_OscConfig+0x474>)
 8003588:	f443 7380 	orr.w	r3, r3, #256	@ 0x100
 800358c:	6013      	str	r3, [r2, #0]
 800358e:	f7fd fdfb 	bl	8001188 <HAL_GetTick>
 8003592:	6138      	str	r0, [r7, #16]
 8003594:	e008      	b.n	80035a8 <HAL_RCC_OscConfig+0x2c8>
 8003596:	f7fd fdf7 	bl	8001188 <HAL_GetTick>
 800359a:	4602      	mov	r2, r0
 800359c:	693b      	ldr	r3, [r7, #16]
 800359e:	1ad3      	subs	r3, r2, r3
 80035a0:	2b02      	cmp	r3, #2
 80035a2:	d901      	bls.n	80035a8 <HAL_RCC_OscConfig+0x2c8>
 80035a4:	2303      	movs	r3, #3
 80035a6:	e10c      	b.n	80037c2 <HAL_RCC_OscConfig+0x4e2>
 80035a8:	4b6a      	ldr	r3, [pc, #424]	@ (8003754 <HAL_RCC_OscConfig+0x474>)
 80035aa:	681b      	ldr	r3, [r3, #0]
 80035ac:	f403 7380 	and.w	r3, r3, #256	@ 0x100
 80035b0:	2b00      	cmp	r3, #0
 80035b2:	d0f0      	beq.n	8003596 <HAL_RCC_OscConfig+0x2b6>
 80035b4:	687b      	ldr	r3, [r7, #4]
 80035b6:	689b      	ldr	r3, [r3, #8]
 80035b8:	2b01      	cmp	r3, #1
 80035ba:	d106      	bne.n	80035ca <HAL_RCC_OscConfig+0x2ea>
 80035bc:	4b64      	ldr	r3, [pc, #400]	@ (8003750 <HAL_RCC_OscConfig+0x470>)
 80035be:	6f1b      	ldr	r3, [r3, #112]	@ 0x70
 80035c0:	4a63      	ldr	r2, [pc, #396]	@ (8003750 <HAL_RCC_OscConfig+0x470>)
 80035c2:	f043 0301 	orr.w	r3, r3, #1
 80035c6:	6713      	str	r3, [r2, #112]	@ 0x70
 80035c8:	e01c      	b.n	8003604 <HAL_RCC_OscConfig+0x324>
 80035ca:	687b      	ldr	r3, [r7, #4]
 80035cc:	689b      	ldr	r3, [r3, #8]
 80035ce:	2b05      	cmp	r3, #5
 80035d0:	d10c      	bne.n	80035ec <HAL_RCC_OscConfig+0x30c>
 80035d2:	4b5f      	ldr	r3, [pc, #380]	@ (8003750 <HAL_RCC_OscConfig+0x470>)
 80035d4:	6f1b      	ldr	r3, [r3, #112]	@ 0x70
 80035d6:	4a5e      	ldr	r2, [pc, #376]	@ (8003750 <HAL_RCC_OscConfig+0x470>)
 80035d8:	f043 0304 	orr.w	r3, r3, #4
 80035dc:	6713      	str	r3, [r2, #112]	@ 0x70
 80035de:	4b5c      	ldr	r3, [pc, #368]	@ (8003750 <HAL_RCC_OscConfig+0x470>)
 80035e0:	6f1b      	ldr	r3, [r3, #112]	@ 0x70
 80035e2:	4a5b      	ldr	r2, [pc, #364]	@ (8003750 <HAL_RCC_OscConfig+0x470>)
 80035e4:	f043 0301 	orr.w	r3, r3, #1
 80035e8:	6713      	str	r3, [r2, #112]	@ 0x70
 80035ea:	e00b      	b.n	8003604 <HAL_RCC_OscConfig+0x324>
 80035ec:	4b58      	ldr	r3, [pc, #352]	@ (8003750 <HAL_RCC_OscConfig+0x470>)
 80035ee:	6f1b      	ldr	r3, [r3, #112]	@ 0x70
 80035f0:	4a57      	ldr	r2, [pc, #348]	@ (8003750 <HAL_RCC_OscConfig+0x470>)
 80035f2:	f023 0301 	bic.w	r3, r3, #1
 80035f6:	6713      	str	r3, [r2, #112]	@ 0x70
 80035f8:	4b55      	ldr	r3, [pc, #340]	@ (8003750 <HAL_RCC_OscConfig+0x470>)
 80035fa:	6f1b      	ldr	r3, [r3, #112]	@ 0x70
 80035fc:	4a54      	ldr	r2, [pc, #336]	@ (8003750 <HAL_RCC_OscConfig+0x470>)
 80035fe:	f023 0304 	bic.w	r3, r3, #4
 8003602:	6713      	str	r3, [r2, #112]	@ 0x70
 8003604:	687b      	ldr	r3, [r7, #4]
 8003606:	689b      	ldr	r3, [r3, #8]
 8003608:	2b00      	cmp	r3, #0
 800360a:	d015      	beq.n	8003638 <HAL_RCC_OscConfig+0x358>
 800360c:	f7fd fdbc 	bl	8001188 <HAL_GetTick>
 8003610:	6138      	str	r0, [r7, #16]
 8003612:	e00a      	b.n	800362a <HAL_RCC_OscConfig+0x34a>
 8003614:	f7fd fdb8 	bl	8001188 <HAL_GetTick>
 8003618:	4602      	mov	r2, r0
 800361a:	693b      	ldr	r3, [r7, #16]
 800361c:	1ad3      	subs	r3, r2, r3
 800361e:	f241 3288 	movw	r2, #5000	@ 0x1388
 8003622:	4293      	cmp	r3, r2
 8003624:	d901      	bls.n	800362a <HAL_RCC_OscConfig+0x34a>
 8003626:	2303      	movs	r3, #3
 8003628:	e0cb      	b.n	80037c2 <HAL_RCC_OscConfig+0x4e2>
 800362a:	4b49      	ldr	r3, [pc, #292]	@ (8003750 <HAL_RCC_OscConfig+0x470>)
 800362c:	6f1b      	ldr	r3, [r3, #112]	@ 0x70
 800362e:	f003 0302 	and.w	r3, r3, #2
 8003632:	2b00      	cmp	r3, #0
 8003634:	d0ee      	beq.n	8003614 <HAL_RCC_OscConfig+0x334>
 8003636:	e014      	b.n	8003662 <HAL_RCC_OscConfig+0x382>
 8003638:	f7fd fda6 	bl	8001188 <HAL_GetTick>
 800363c:	6138      	str	r0, [r7, #16]
 800363e:	e00a      	b.n	8003656 <HAL_RCC_OscConfig+0x376>
 8003640:	f7fd fda2 	bl	8001188 <HAL_GetTick>
 8003644:	4602      	mov	r2, r0
 8003646:	693b      	ldr	r3, [r7, #16]
 8003648:	1ad3      	subs	r3, r2, r3
 800364a:	f241 3288 	movw	r2, #5000	@ 0x1388
 800364e:	4293      	cmp	r3, r2
 8003650:	d901      	bls.n	8003656 <HAL_RCC_OscConfig+0x376>
 8003652:	2303      	movs	r3, #3
 8003654:	e0b5      	b.n	80037c2 <HAL_RCC_OscConfig+0x4e2>
 8003656:	4b3e      	ldr	r3, [pc, #248]	@ (8003750 <HAL_RCC_OscConfig+0x470>)
 8003658:	6f1b      	ldr	r3, [r3, #112]	@ 0x70
 800365a:	f003 0302 	and.w	r3, r3, #2
 800365e:	2b00      	cmp	r3, #0
 8003660:	d1ee      	bne.n	8003640 <HAL_RCC_OscConfig+0x360>
 8003662:	7dfb      	ldrb	r3, [r7, #23]
 8003664:	2b01      	cmp	r3, #1
 8003666:	d105      	bne.n	8003674 <HAL_RCC_OscConfig+0x394>
 8003668:	4b39      	ldr	r3, [pc, #228]	@ (8003750 <HAL_RCC_OscConfig+0x470>)
 800366a:	6c1b      	ldr	r3, [r3, #64]	@ 0x40
 800366c:	4a38      	ldr	r2, [pc, #224]	@ (8003750 <HAL_RCC_OscConfig+0x470>)
 800366e:	f023 5380 	bic.w	r3, r3, #268435456	@ 0x10000000
 8003672:	6413      	str	r3, [r2, #64]	@ 0x40
 8003674:	687b      	ldr	r3, [r7, #4]
 8003676:	699b      	ldr	r3, [r3, #24]
 8003678:	2b00      	cmp	r3, #0
 800367a:	f000 80a1 	beq.w	80037c0 <HAL_RCC_OscConfig+0x4e0>
 800367e:	4b34      	ldr	r3, [pc, #208]	@ (8003750 <HAL_RCC_OscConfig+0x470>)
 8003680:	689b      	ldr	r3, [r3, #8]
 8003682:	f003 030c 	and.w	r3, r3, #12
 8003686:	2b08      	cmp	r3, #8
 8003688:	d05c      	beq.n	8003744 <HAL_RCC_OscConfig+0x464>
 800368a:	687b      	ldr	r3, [r7, #4]
 800368c:	699b      	ldr	r3, [r3, #24]
 800368e:	2b02      	cmp	r3, #2
 8003690:	d141      	bne.n	8003716 <HAL_RCC_OscConfig+0x436>
 8003692:	4b31      	ldr	r3, [pc, #196]	@ (8003758 <HAL_RCC_OscConfig+0x478>)
 8003694:	2200      	movs	r2, #0
 8003696:	601a      	str	r2, [r3, #0]
 8003698:	f7fd fd76 	bl	8001188 <HAL_GetTick>
 800369c:	6138      	str	r0, [r7, #16]
 800369e:	e008      	b.n	80036b2 <HAL_RCC_OscConfig+0x3d2>
 80036a0:	f7fd fd72 	bl	8001188 <HAL_GetTick>
 80036a4:	4602      	mov	r2, r0
 80036a6:	693b      	ldr	r3, [r7, #16]
 80036a8:	1ad3      	subs	r3, r2, r3
 80036aa:	2b02      	cmp	r3, #2
 80036ac:	d901      	bls.n	80036b2 <HAL_RCC_OscConfig+0x3d2>
 80036ae:	2303      	movs	r3, #3
 80036b0:	e087      	b.n	80037c2 <HAL_RCC_OscConfig+0x4e2>
 80036b2:	4b27      	ldr	r3, [pc, #156]	@ (8003750 <HAL_RCC_OscConfig+0x470>)
 80036b4:	681b      	ldr	r3, [r3, #0]
 80036b6:	f003 7300 	and.w	r3, r3, #33554432	@ 0x2000000
 80036ba:	2b00      	cmp	r3, #0
 80036bc:	d1f0      	bne.n	80036a0 <HAL_RCC_OscConfig+0x3c0>
 80036be:	687b      	ldr	r3, [r7, #4]
 80036c0:	69da      	ldr	r2, [r3, #28]
 80036c2:	687b      	ldr	r3, [r7, #4]
 80036c4:	6a1b      	ldr	r3, [r3, #32]
 80036c6:	431a      	orrs	r2, r3
 80036c8:	687b      	ldr	r3, [r7, #4]
 80036ca:	6a5b      	ldr	r3, [r3, #36]	@ 0x24
 80036cc:	019b      	lsls	r3, r3, #6
 80036ce:	431a      	orrs	r2, r3
 80036d0:	687b      	ldr	r3, [r7, #4]
 80036d2:	6a9b      	ldr	r3, [r3, #40]	@ 0x28
 80036d4:	085b      	lsrs	r3, r3, #1
 80036d6:	3b01      	subs	r3, #1
 80036d8:	041b      	lsls	r3, r3, #16
 80036da:	431a      	orrs	r2, r3
 80036dc:	687b      	ldr	r3, [r7, #4]
 80036de:	6adb      	ldr	r3, [r3, #44]	@ 0x2c
 80036e0:	061b      	lsls	r3, r3, #24
 80036e2:	491b      	ldr	r1, [pc, #108]	@ (8003750 <HAL_RCC_OscConfig+0x470>)
 80036e4:	4313      	orrs	r3, r2
 80036e6:	604b      	str	r3, [r1, #4]
 80036e8:	4b1b      	ldr	r3, [pc, #108]	@ (8003758 <HAL_RCC_OscConfig+0x478>)
 80036ea:	2201      	movs	r2, #1
 80036ec:	601a      	str	r2, [r3, #0]
 80036ee:	f7fd fd4b 	bl	8001188 <HAL_GetTick>
 80036f2:	6138      	str	r0, [r7, #16]
 80036f4:	e008      	b.n	8003708 <HAL_RCC_OscConfig+0x428>
 80036f6:	f7fd fd47 	bl	8001188 <HAL_GetTick>
 80036fa:	4602      	mov	r2, r0
 80036fc:	693b      	ldr	r3, [r7, #16]
 80036fe:	1ad3      	subs	r3, r2, r3
 8003700:	2b02      	cmp	r3, #2
 8003702:	d901      	bls.n	8003708 <HAL_RCC_OscConfig+0x428>
 8003704:	2303      	movs	r3, #3
 8003706:	e05c      	b.n	80037c2 <HAL_RCC_OscConfig+0x4e2>
 8003708:	4b11      	ldr	r3, [pc, #68]	@ (8003750 <HAL_RCC_OscConfig+0x470>)
 800370a:	681b      	ldr	r3, [r3, #0]
 800370c:	f003 7300 	and.w	r3, r3, #33554432	@ 0x2000000
 8003710:	2b00      	cmp	r3, #0
 8003712:	d0f0      	beq.n	80036f6 <HAL_RCC_OscConfig+0x416>
 8003714:	e054      	b.n	80037c0 <HAL_RCC_OscConfig+0x4e0>
 8003716:	4b10      	ldr	r3, [pc, #64]	@ (8003758 <HAL_RCC_OscConfig+0x478>)
 8003718:	2200      	movs	r2, #0
 800371a:	601a      	str	r2, [r3, #0]
 800371c:	f7fd fd34 	bl	8001188 <HAL_GetTick>
 8003720:	6138      	str	r0, [r7, #16]
 8003722:	e008      	b.n	8003736 <HAL_RCC_OscConfig+0x456>
 8003724:	f7fd fd30 	bl	8001188 <HAL_GetTick>
 8003728:	4602      	mov	r2, r0
 800372a:	693b      	ldr	r3, [r7, #16]
 800372c:	1ad3      	subs	r3, r2, r3
 800372e:	2b02      	cmp	r3, #2
 8003730:	d901      	bls.n	8003736 <HAL_RCC_OscConfig+0x456>
 8003732:	2303      	movs	r3, #3
 8003734:	e045      	b.n	80037c2 <HAL_RCC_OscConfig+0x4e2>
 8003736:	4b06      	ldr	r3, [pc, #24]	@ (8003750 <HAL_RCC_OscConfig+0x470>)
 8003738:	681b      	ldr	r3, [r3, #0]
 800373a:	f003 7300 	and.w	r3, r3, #33554432	@ 0x2000000
 800373e:	2b00      	cmp	r3, #0
 8003740:	d1f0      	bne.n	8003724 <HAL_RCC_OscConfig+0x444>
 8003742:	e03d      	b.n	80037c0 <HAL_RCC_OscConfig+0x4e0>
 8003744:	687b      	ldr	r3, [r7, #4]
 8003746:	699b      	ldr	r3, [r3, #24]
 8003748:	2b01      	cmp	r3, #1
 800374a:	d107      	bne.n	800375c <HAL_RCC_OscConfig+0x47c>
 800374c:	2301      	movs	r3, #1
 800374e:	e038      	b.n	80037c2 <HAL_RCC_OscConfig+0x4e2>
 8003750:	40023800 	.word	0x40023800
 8003754:	40007000 	.word	0x40007000
 8003758:	42470060 	.word	0x42470060
 800375c:	4b1b      	ldr	r3, [pc, #108]	@ (80037cc <HAL_RCC_OscConfig+0x4ec>)
 800375e:	685b      	ldr	r3, [r3, #4]
 8003760:	60fb      	str	r3, [r7, #12]
 8003762:	687b      	ldr	r3, [r7, #4]
 8003764:	699b      	ldr	r3, [r3, #24]
 8003766:	2b01      	cmp	r3, #1
 8003768:	d028      	beq.n	80037bc <HAL_RCC_OscConfig+0x4dc>
 800376a:	68fb      	ldr	r3, [r7, #12]
 800376c:	f403 0280 	and.w	r2, r3, #4194304	@ 0x400000
 8003770:	687b      	ldr	r3, [r7, #4]
 8003772:	69db      	ldr	r3, [r3, #28]
 8003774:	429a      	cmp	r2, r3
 8003776:	d121      	bne.n	80037bc <HAL_RCC_OscConfig+0x4dc>
 8003778:	68fb      	ldr	r3, [r7, #12]
 800377a:	f003 023f 	and.w	r2, r3, #63	@ 0x3f
 800377e:	687b      	ldr	r3, [r7, #4]
 8003780:	6a1b      	ldr	r3, [r3, #32]
 8003782:	429a      	cmp	r2, r3
 8003784:	d11a      	bne.n	80037bc <HAL_RCC_OscConfig+0x4dc>
 8003786:	68fa      	ldr	r2, [r7, #12]
 8003788:	f647 73c0 	movw	r3, #32704	@ 0x7fc0
 800378c:	4013      	ands	r3, r2
 800378e:	687a      	ldr	r2, [r7, #4]
 8003790:	6a52      	ldr	r2, [r2, #36]	@ 0x24
 8003792:	0192      	lsls	r2, r2, #6
 8003794:	4293      	cmp	r3, r2
 8003796:	d111      	bne.n	80037bc <HAL_RCC_OscConfig+0x4dc>
 8003798:	68fb      	ldr	r3, [r7, #12]
 800379a:	f403 3240 	and.w	r2, r3, #196608	@ 0x30000
 800379e:	687b      	ldr	r3, [r7, #4]
 80037a0:	6a9b      	ldr	r3, [r3, #40]	@ 0x28
 80037a2:	085b      	lsrs	r3, r3, #1
 80037a4:	3b01      	subs	r3, #1
 80037a6:	041b      	lsls	r3, r3, #16
 80037a8:	429a      	cmp	r2, r3
 80037aa:	d107      	bne.n	80037bc <HAL_RCC_OscConfig+0x4dc>
 80037ac:	68fb      	ldr	r3, [r7, #12]
 80037ae:	f003 6270 	and.w	r2, r3, #251658240	@ 0xf000000
 80037b2:	687b      	ldr	r3, [r7, #4]
 80037b4:	6adb      	ldr	r3, [r3, #44]	@ 0x2c
 80037b6:	061b      	lsls	r3, r3, #24
 80037b8:	429a      	cmp	r2, r3
 80037ba:	d001      	beq.n	80037c0 <HAL_RCC_OscConfig+0x4e0>
 80037bc:	2301      	movs	r3, #1
 80037be:	e000      	b.n	80037c2 <HAL_RCC_OscConfig+0x4e2>
 80037c0:	2300      	movs	r3, #0
 80037c2:	4618      	mov	r0, r3
 80037c4:	3718      	adds	r7, #24
 80037c6:	46bd      	mov	sp, r7
 80037c8:	bd80      	pop	{r7, pc}
 80037ca:	bf00      	nop
 80037cc:	40023800 	.word	0x40023800

080037d0 <HAL_RCC_ClockConfig>:
 80037d0:	b580      	push	{r7, lr}
 80037d2:	b084      	sub	sp, #16
 80037d4:	af00      	add	r7, sp, #0
 80037d6:	6078      	str	r0, [r7, #4]
 80037d8:	6039      	str	r1, [r7, #0]
 80037da:	687b      	ldr	r3, [r7, #4]
 80037dc:	2b00      	cmp	r3, #0
 80037de:	d101      	bne.n	80037e4 <HAL_RCC_ClockConfig+0x14>
 80037e0:	2301      	movs	r3, #1
 80037e2:	e0cc      	b.n	800397e <HAL_RCC_ClockConfig+0x1ae>
 80037e4:	4b68      	ldr	r3, [pc, #416]	@ (8003988 <HAL_RCC_ClockConfig+0x1b8>)
 80037e6:	681b      	ldr	r3, [r3, #0]
 80037e8:	f003 0307 	and.w	r3, r3, #7
 80037ec:	683a      	ldr	r2, [r7, #0]
 80037ee:	429a      	cmp	r2, r3
 80037f0:	d90c      	bls.n	800380c <HAL_RCC_ClockConfig+0x3c>
 80037f2:	4b65      	ldr	r3, [pc, #404]	@ (8003988 <HAL_RCC_ClockConfig+0x1b8>)
 80037f4:	683a      	ldr	r2, [r7, #0]
 80037f6:	b2d2      	uxtb	r2, r2
 80037f8:	701a      	strb	r2, [r3, #0]
 80037fa:	4b63      	ldr	r3, [pc, #396]	@ (8003988 <HAL_RCC_ClockConfig+0x1b8>)
 80037fc:	681b      	ldr	r3, [r3, #0]
 80037fe:	f003 0307 	and.w	r3, r3, #7
 8003802:	683a      	ldr	r2, [r7, #0]
 8003804:	429a      	cmp	r2, r3
 8003806:	d001      	beq.n	800380c <HAL_RCC_ClockConfig+0x3c>
 8003808:	2301      	movs	r3, #1
 800380a:	e0b8      	b.n	800397e <HAL_RCC_ClockConfig+0x1ae>
 800380c:	687b      	ldr	r3, [r7, #4]
 800380e:	681b      	ldr	r3, [r3, #0]
 8003810:	f003 0302 	and.w	r3, r3, #2
 8003814:	2b00      	cmp	r3, #0
 8003816:	d020      	beq.n	800385a <HAL_RCC_ClockConfig+0x8a>
 8003818:	687b      	ldr	r3, [r7, #4]
 800381a:	681b      	ldr	r3, [r3, #0]
 800381c:	f003 0304 	and.w	r3, r3, #4
 8003820:	2b00      	cmp	r3, #0
 8003822:	d005      	beq.n	8003830 <HAL_RCC_ClockConfig+0x60>
 8003824:	4b59      	ldr	r3, [pc, #356]	@ (800398c <HAL_RCC_ClockConfig+0x1bc>)
 8003826:	689b      	ldr	r3, [r3, #8]
 8003828:	4a58      	ldr	r2, [pc, #352]	@ (800398c <HAL_RCC_ClockConfig+0x1bc>)
 800382a:	f443 53e0 	orr.w	r3, r3, #7168	@ 0x1c00
 800382e:	6093      	str	r3, [r2, #8]
 8003830:	687b      	ldr	r3, [r7, #4]
 8003832:	681b      	ldr	r3, [r3, #0]
 8003834:	f003 0308 	and.w	r3, r3, #8
 8003838:	2b00      	cmp	r3, #0
 800383a:	d005      	beq.n	8003848 <HAL_RCC_ClockConfig+0x78>
 800383c:	4b53      	ldr	r3, [pc, #332]	@ (800398c <HAL_RCC_ClockConfig+0x1bc>)
 800383e:	689b      	ldr	r3, [r3, #8]
 8003840:	4a52      	ldr	r2, [pc, #328]	@ (800398c <HAL_RCC_ClockConfig+0x1bc>)
 8003842:	f443 4360 	orr.w	r3, r3, #57344	@ 0xe000
 8003846:	6093      	str	r3, [r2, #8]
 8003848:	4b50      	ldr	r3, [pc, #320]	@ (800398c <HAL_RCC_ClockConfig+0x1bc>)
 800384a:	689b      	ldr	r3, [r3, #8]
 800384c:	f023 02f0 	bic.w	r2, r3, #240	@ 0xf0
 8003850:	687b      	ldr	r3, [r7, #4]
 8003852:	689b      	ldr	r3, [r3, #8]
 8003854:	494d      	ldr	r1, [pc, #308]	@ (800398c <HAL_RCC_ClockConfig+0x1bc>)
 8003856:	4313      	orrs	r3, r2
 8003858:	608b      	str	r3, [r1, #8]
 800385a:	687b      	ldr	r3, [r7, #4]
 800385c:	681b      	ldr	r3, [r3, #0]
 800385e:	f003 0301 	and.w	r3, r3, #1
 8003862:	2b00      	cmp	r3, #0
 8003864:	d044      	beq.n	80038f0 <HAL_RCC_ClockConfig+0x120>
 8003866:	687b      	ldr	r3, [r7, #4]
 8003868:	685b      	ldr	r3, [r3, #4]
 800386a:	2b01      	cmp	r3, #1
 800386c:	d107      	bne.n	800387e <HAL_RCC_ClockConfig+0xae>
 800386e:	4b47      	ldr	r3, [pc, #284]	@ (800398c <HAL_RCC_ClockConfig+0x1bc>)
 8003870:	681b      	ldr	r3, [r3, #0]
 8003872:	f403 3300 	and.w	r3, r3, #131072	@ 0x20000
 8003876:	2b00      	cmp	r3, #0
 8003878:	d119      	bne.n	80038ae <HAL_RCC_ClockConfig+0xde>
 800387a:	2301      	movs	r3, #1
 800387c:	e07f      	b.n	800397e <HAL_RCC_ClockConfig+0x1ae>
 800387e:	687b      	ldr	r3, [r7, #4]
 8003880:	685b      	ldr	r3, [r3, #4]
 8003882:	2b02      	cmp	r3, #2
 8003884:	d003      	beq.n	800388e <HAL_RCC_ClockConfig+0xbe>
 8003886:	687b      	ldr	r3, [r7, #4]
 8003888:	685b      	ldr	r3, [r3, #4]
 800388a:	2b03      	cmp	r3, #3
 800388c:	d107      	bne.n	800389e <HAL_RCC_ClockConfig+0xce>
 800388e:	4b3f      	ldr	r3, [pc, #252]	@ (800398c <HAL_RCC_ClockConfig+0x1bc>)
 8003890:	681b      	ldr	r3, [r3, #0]
 8003892:	f003 7300 	and.w	r3, r3, #33554432	@ 0x2000000
 8003896:	2b00      	cmp	r3, #0
 8003898:	d109      	bne.n	80038ae <HAL_RCC_ClockConfig+0xde>
 800389a:	2301      	movs	r3, #1
 800389c:	e06f      	b.n	800397e <HAL_RCC_ClockConfig+0x1ae>
 800389e:	4b3b      	ldr	r3, [pc, #236]	@ (800398c <HAL_RCC_ClockConfig+0x1bc>)
 80038a0:	681b      	ldr	r3, [r3, #0]
 80038a2:	f003 0302 	and.w	r3, r3, #2
 80038a6:	2b00      	cmp	r3, #0
 80038a8:	d101      	bne.n	80038ae <HAL_RCC_ClockConfig+0xde>
 80038aa:	2301      	movs	r3, #1
 80038ac:	e067      	b.n	800397e <HAL_RCC_ClockConfig+0x1ae>
 80038ae:	4b37      	ldr	r3, [pc, #220]	@ (800398c <HAL_RCC_ClockConfig+0x1bc>)
 80038b0:	689b      	ldr	r3, [r3, #8]
 80038b2:	f023 0203 	bic.w	r2, r3, #3
 80038b6:	687b      	ldr	r3, [r7, #4]
 80038b8:	685b      	ldr	r3, [r3, #4]
 80038ba:	4934      	ldr	r1, [pc, #208]	@ (800398c <HAL_RCC_ClockConfig+0x1bc>)
 80038bc:	4313      	orrs	r3, r2
 80038be:	608b      	str	r3, [r1, #8]
 80038c0:	f7fd fc62 	bl	8001188 <HAL_GetTick>
 80038c4:	60f8      	str	r0, [r7, #12]
 80038c6:	e00a      	b.n	80038de <HAL_RCC_ClockConfig+0x10e>
 80038c8:	f7fd fc5e 	bl	8001188 <HAL_GetTick>
 80038cc:	4602      	mov	r2, r0
 80038ce:	68fb      	ldr	r3, [r7, #12]
 80038d0:	1ad3      	subs	r3, r2, r3
 80038d2:	f241 3288 	movw	r2, #5000	@ 0x1388
 80038d6:	4293      	cmp	r3, r2
 80038d8:	d901      	bls.n	80038de <HAL_RCC_ClockConfig+0x10e>
 80038da:	2303      	movs	r3, #3
 80038dc:	e04f      	b.n	800397e <HAL_RCC_ClockConfig+0x1ae>
 80038de:	4b2b      	ldr	r3, [pc, #172]	@ (800398c <HAL_RCC_ClockConfig+0x1bc>)
 80038e0:	689b      	ldr	r3, [r3, #8]
 80038e2:	f003 020c 	and.w	r2, r3, #12
 80038e6:	687b      	ldr	r3, [r7, #4]
 80038e8:	685b      	ldr	r3, [r3, #4]
 80038ea:	009b      	lsls	r3, r3, #2
 80038ec:	429a      	cmp	r2, r3
 80038ee:	d1eb      	bne.n	80038c8 <HAL_RCC_ClockConfig+0xf8>
 80038f0:	4b25      	ldr	r3, [pc, #148]	@ (8003988 <HAL_RCC_ClockConfig+0x1b8>)
 80038f2:	681b      	ldr	r3, [r3, #0]
 80038f4:	f003 0307 	and.w	r3, r3, #7
 80038f8:	683a      	ldr	r2, [r7, #0]
 80038fa:	429a      	cmp	r2, r3
 80038fc:	d20c      	bcs.n	8003918 <HAL_RCC_ClockConfig+0x148>
 80038fe:	4b22      	ldr	r3, [pc, #136]	@ (8003988 <HAL_RCC_ClockConfig+0x1b8>)
 8003900:	683a      	ldr	r2, [r7, #0]
 8003902:	b2d2      	uxtb	r2, r2
 8003904:	701a      	strb	r2, [r3, #0]
 8003906:	4b20      	ldr	r3, [pc, #128]	@ (8003988 <HAL_RCC_ClockConfig+0x1b8>)
 8003908:	681b      	ldr	r3, [r3, #0]
 800390a:	f003 0307 	and.w	r3, r3, #7
 800390e:	683a      	ldr	r2, [r7, #0]
 8003910:	429a      	cmp	r2, r3
 8003912:	d001      	beq.n	8003918 <HAL_RCC_ClockConfig+0x148>
 8003914:	2301      	movs	r3, #1
 8003916:	e032      	b.n	800397e <HAL_RCC_ClockConfig+0x1ae>
 8003918:	687b      	ldr	r3, [r7, #4]
 800391a:	681b      	ldr	r3, [r3, #0]
 800391c:	f003 0304 	and.w	r3, r3, #4
 8003920:	2b00      	cmp	r3, #0
 8003922:	d008      	beq.n	8003936 <HAL_RCC_ClockConfig+0x166>
 8003924:	4b19      	ldr	r3, [pc, #100]	@ (800398c <HAL_RCC_ClockConfig+0x1bc>)
 8003926:	689b      	ldr	r3, [r3, #8]
 8003928:	f423 52e0 	bic.w	r2, r3, #7168	@ 0x1c00
 800392c:	687b      	ldr	r3, [r7, #4]
 800392e:	68db      	ldr	r3, [r3, #12]
 8003930:	4916      	ldr	r1, [pc, #88]	@ (800398c <HAL_RCC_ClockConfig+0x1bc>)
 8003932:	4313      	orrs	r3, r2
 8003934:	608b      	str	r3, [r1, #8]
 8003936:	687b      	ldr	r3, [r7, #4]
 8003938:	681b      	ldr	r3, [r3, #0]
 800393a:	f003 0308 	and.w	r3, r3, #8
 800393e:	2b00      	cmp	r3, #0
 8003940:	d009      	beq.n	8003956 <HAL_RCC_ClockConfig+0x186>
 8003942:	4b12      	ldr	r3, [pc, #72]	@ (800398c <HAL_RCC_ClockConfig+0x1bc>)
 8003944:	689b      	ldr	r3, [r3, #8]
 8003946:	f423 4260 	bic.w	r2, r3, #57344	@ 0xe000
 800394a:	687b      	ldr	r3, [r7, #4]
 800394c:	691b      	ldr	r3, [r3, #16]
 800394e:	00db      	lsls	r3, r3, #3
 8003950:	490e      	ldr	r1, [pc, #56]	@ (800398c <HAL_RCC_ClockConfig+0x1bc>)
 8003952:	4313      	orrs	r3, r2
 8003954:	608b      	str	r3, [r1, #8]
 8003956:	f000 f821 	bl	800399c <HAL_RCC_GetSysClockFreq>
 800395a:	4602      	mov	r2, r0
 800395c:	4b0b      	ldr	r3, [pc, #44]	@ (800398c <HAL_RCC_ClockConfig+0x1bc>)
 800395e:	689b      	ldr	r3, [r3, #8]
 8003960:	091b      	lsrs	r3, r3, #4
 8003962:	f003 030f 	and.w	r3, r3, #15
 8003966:	490a      	ldr	r1, [pc, #40]	@ (8003990 <HAL_RCC_ClockConfig+0x1c0>)
 8003968:	5ccb      	ldrb	r3, [r1, r3]
 800396a:	fa22 f303 	lsr.w	r3, r2, r3
 800396e:	4a09      	ldr	r2, [pc, #36]	@ (8003994 <HAL_RCC_ClockConfig+0x1c4>)
 8003970:	6013      	str	r3, [r2, #0]
 8003972:	4b09      	ldr	r3, [pc, #36]	@ (8003998 <HAL_RCC_ClockConfig+0x1c8>)
 8003974:	681b      	ldr	r3, [r3, #0]
 8003976:	4618      	mov	r0, r3
 8003978:	f7fd fbc2 	bl	8001100 <HAL_InitTick>
 800397c:	2300      	movs	r3, #0
 800397e:	4618      	mov	r0, r3
 8003980:	3710      	adds	r7, #16
 8003982:	46bd      	mov	sp, r7
 8003984:	bd80      	pop	{r7, pc}
 8003986:	bf00      	nop
 8003988:	40023c00 	.word	0x40023c00
 800398c:	40023800 	.word	0x40023800
 8003990:	08003e5c 	.word	0x08003e5c
 8003994:	20000000 	.word	0x20000000
 8003998:	20000004 	.word	0x20000004

0800399c <HAL_RCC_GetSysClockFreq>:
 800399c:	e92d 4fb0 	stmdb	sp!, {r4, r5, r7, r8, r9, sl, fp, lr}
 80039a0:	b090      	sub	sp, #64	@ 0x40
 80039a2:	af00      	add	r7, sp, #0
 80039a4:	2300      	movs	r3, #0
 80039a6:	637b      	str	r3, [r7, #52]	@ 0x34
 80039a8:	2300      	movs	r3, #0
 80039aa:	63fb      	str	r3, [r7, #60]	@ 0x3c
 80039ac:	2300      	movs	r3, #0
 80039ae:	633b      	str	r3, [r7, #48]	@ 0x30
 80039b0:	2300      	movs	r3, #0
 80039b2:	63bb      	str	r3, [r7, #56]	@ 0x38
 80039b4:	4b59      	ldr	r3, [pc, #356]	@ (8003b1c <HAL_RCC_GetSysClockFreq+0x180>)
 80039b6:	689b      	ldr	r3, [r3, #8]
 80039b8:	f003 030c 	and.w	r3, r3, #12
 80039bc:	2b08      	cmp	r3, #8
 80039be:	d00d      	beq.n	80039dc <HAL_RCC_GetSysClockFreq+0x40>
 80039c0:	2b08      	cmp	r3, #8
 80039c2:	f200 80a1 	bhi.w	8003b08 <HAL_RCC_GetSysClockFreq+0x16c>
 80039c6:	2b00      	cmp	r3, #0
 80039c8:	d002      	beq.n	80039d0 <HAL_RCC_GetSysClockFreq+0x34>
 80039ca:	2b04      	cmp	r3, #4
 80039cc:	d003      	beq.n	80039d6 <HAL_RCC_GetSysClockFreq+0x3a>
 80039ce:	e09b      	b.n	8003b08 <HAL_RCC_GetSysClockFreq+0x16c>
 80039d0:	4b53      	ldr	r3, [pc, #332]	@ (8003b20 <HAL_RCC_GetSysClockFreq+0x184>)
 80039d2:	63bb      	str	r3, [r7, #56]	@ 0x38
 80039d4:	e09b      	b.n	8003b0e <HAL_RCC_GetSysClockFreq+0x172>
 80039d6:	4b53      	ldr	r3, [pc, #332]	@ (8003b24 <HAL_RCC_GetSysClockFreq+0x188>)
 80039d8:	63bb      	str	r3, [r7, #56]	@ 0x38
 80039da:	e098      	b.n	8003b0e <HAL_RCC_GetSysClockFreq+0x172>
 80039dc:	4b4f      	ldr	r3, [pc, #316]	@ (8003b1c <HAL_RCC_GetSysClockFreq+0x180>)
 80039de:	685b      	ldr	r3, [r3, #4]
 80039e0:	f003 033f 	and.w	r3, r3, #63	@ 0x3f
 80039e4:	637b      	str	r3, [r7, #52]	@ 0x34
 80039e6:	4b4d      	ldr	r3, [pc, #308]	@ (8003b1c <HAL_RCC_GetSysClockFreq+0x180>)
 80039e8:	685b      	ldr	r3, [r3, #4]
 80039ea:	f403 0380 	and.w	r3, r3, #4194304	@ 0x400000
 80039ee:	2b00      	cmp	r3, #0
 80039f0:	d028      	beq.n	8003a44 <HAL_RCC_GetSysClockFreq+0xa8>
 80039f2:	4b4a      	ldr	r3, [pc, #296]	@ (8003b1c <HAL_RCC_GetSysClockFreq+0x180>)
 80039f4:	685b      	ldr	r3, [r3, #4]
 80039f6:	099b      	lsrs	r3, r3, #6
 80039f8:	2200      	movs	r2, #0
 80039fa:	623b      	str	r3, [r7, #32]
 80039fc:	627a      	str	r2, [r7, #36]	@ 0x24
 80039fe:	6a3b      	ldr	r3, [r7, #32]
 8003a00:	f3c3 0008 	ubfx	r0, r3, #0, #9
 8003a04:	2100      	movs	r1, #0
 8003a06:	4b47      	ldr	r3, [pc, #284]	@ (8003b24 <HAL_RCC_GetSysClockFreq+0x188>)
 8003a08:	fb03 f201 	mul.w	r2, r3, r1
 8003a0c:	2300      	movs	r3, #0
 8003a0e:	fb00 f303 	mul.w	r3, r0, r3
 8003a12:	4413      	add	r3, r2
 8003a14:	4a43      	ldr	r2, [pc, #268]	@ (8003b24 <HAL_RCC_GetSysClockFreq+0x188>)
 8003a16:	fba0 1202 	umull	r1, r2, r0, r2
 8003a1a:	62fa      	str	r2, [r7, #44]	@ 0x2c
 8003a1c:	460a      	mov	r2, r1
 8003a1e:	62ba      	str	r2, [r7, #40]	@ 0x28
 8003a20:	6afa      	ldr	r2, [r7, #44]	@ 0x2c
 8003a22:	4413      	add	r3, r2
 8003a24:	62fb      	str	r3, [r7, #44]	@ 0x2c
 8003a26:	6b7b      	ldr	r3, [r7, #52]	@ 0x34
 8003a28:	2200      	movs	r2, #0
 8003a2a:	61bb      	str	r3, [r7, #24]
 8003a2c:	61fa      	str	r2, [r7, #28]
 8003a2e:	e9d7 2306 	ldrd	r2, r3, [r7, #24]
 8003a32:	e9d7 010a 	ldrd	r0, r1, [r7, #40]	@ 0x28
 8003a36:	f7fc fbc7 	bl	80001c8 <__aeabi_uldivmod>
 8003a3a:	4602      	mov	r2, r0
 8003a3c:	460b      	mov	r3, r1
 8003a3e:	4613      	mov	r3, r2
 8003a40:	63fb      	str	r3, [r7, #60]	@ 0x3c
 8003a42:	e053      	b.n	8003aec <HAL_RCC_GetSysClockFreq+0x150>
 8003a44:	4b35      	ldr	r3, [pc, #212]	@ (8003b1c <HAL_RCC_GetSysClockFreq+0x180>)
 8003a46:	685b      	ldr	r3, [r3, #4]
 8003a48:	099b      	lsrs	r3, r3, #6
 8003a4a:	2200      	movs	r2, #0
 8003a4c:	613b      	str	r3, [r7, #16]
 8003a4e:	617a      	str	r2, [r7, #20]
 8003a50:	693b      	ldr	r3, [r7, #16]
 8003a52:	f3c3 0a08 	ubfx	sl, r3, #0, #9
 8003a56:	f04f 0b00 	mov.w	fp, #0
 8003a5a:	4652      	mov	r2, sl
 8003a5c:	465b      	mov	r3, fp
 8003a5e:	f04f 0000 	mov.w	r0, #0
 8003a62:	f04f 0100 	mov.w	r1, #0
 8003a66:	0159      	lsls	r1, r3, #5
 8003a68:	ea41 61d2 	orr.w	r1, r1, r2, lsr #27
 8003a6c:	0150      	lsls	r0, r2, #5
 8003a6e:	4602      	mov	r2, r0
 8003a70:	460b      	mov	r3, r1
 8003a72:	ebb2 080a 	subs.w	r8, r2, sl
 8003a76:	eb63 090b 	sbc.w	r9, r3, fp
 8003a7a:	f04f 0200 	mov.w	r2, #0
 8003a7e:	f04f 0300 	mov.w	r3, #0
 8003a82:	ea4f 1389 	mov.w	r3, r9, lsl #6
 8003a86:	ea43 6398 	orr.w	r3, r3, r8, lsr #26
 8003a8a:	ea4f 1288 	mov.w	r2, r8, lsl #6
 8003a8e:	ebb2 0408 	subs.w	r4, r2, r8
 8003a92:	eb63 0509 	sbc.w	r5, r3, r9
 8003a96:	f04f 0200 	mov.w	r2, #0
 8003a9a:	f04f 0300 	mov.w	r3, #0
 8003a9e:	00eb      	lsls	r3, r5, #3
 8003aa0:	ea43 7354 	orr.w	r3, r3, r4, lsr #29
 8003aa4:	00e2      	lsls	r2, r4, #3
 8003aa6:	4614      	mov	r4, r2
 8003aa8:	461d      	mov	r5, r3
 8003aaa:	eb14 030a 	adds.w	r3, r4, sl
 8003aae:	603b      	str	r3, [r7, #0]
 8003ab0:	eb45 030b 	adc.w	r3, r5, fp
 8003ab4:	607b      	str	r3, [r7, #4]
 8003ab6:	f04f 0200 	mov.w	r2, #0
 8003aba:	f04f 0300 	mov.w	r3, #0
 8003abe:	e9d7 4500 	ldrd	r4, r5, [r7]
 8003ac2:	4629      	mov	r1, r5
 8003ac4:	028b      	lsls	r3, r1, #10
 8003ac6:	4621      	mov	r1, r4
 8003ac8:	ea43 5391 	orr.w	r3, r3, r1, lsr #22
 8003acc:	4621      	mov	r1, r4
 8003ace:	028a      	lsls	r2, r1, #10
 8003ad0:	4610      	mov	r0, r2
 8003ad2:	4619      	mov	r1, r3
 8003ad4:	6b7b      	ldr	r3, [r7, #52]	@ 0x34
 8003ad6:	2200      	movs	r2, #0
 8003ad8:	60bb      	str	r3, [r7, #8]
 8003ada:	60fa      	str	r2, [r7, #12]
 8003adc:	e9d7 2302 	ldrd	r2, r3, [r7, #8]
 8003ae0:	f7fc fb72 	bl	80001c8 <__aeabi_uldivmod>
 8003ae4:	4602      	mov	r2, r0
 8003ae6:	460b      	mov	r3, r1
 8003ae8:	4613      	mov	r3, r2
 8003aea:	63fb      	str	r3, [r7, #60]	@ 0x3c
 8003aec:	4b0b      	ldr	r3, [pc, #44]	@ (8003b1c <HAL_RCC_GetSysClockFreq+0x180>)
 8003aee:	685b      	ldr	r3, [r3, #4]
 8003af0:	0c1b      	lsrs	r3, r3, #16
 8003af2:	f003 0303 	and.w	r3, r3, #3
 8003af6:	3301      	adds	r3, #1
 8003af8:	005b      	lsls	r3, r3, #1
 8003afa:	633b      	str	r3, [r7, #48]	@ 0x30
 8003afc:	6bfa      	ldr	r2, [r7, #60]	@ 0x3c
 8003afe:	6b3b      	ldr	r3, [r7, #48]	@ 0x30
 8003b00:	fbb2 f3f3 	udiv	r3, r2, r3
 8003b04:	63bb      	str	r3, [r7, #56]	@ 0x38
 8003b06:	e002      	b.n	8003b0e <HAL_RCC_GetSysClockFreq+0x172>
 8003b08:	4b05      	ldr	r3, [pc, #20]	@ (8003b20 <HAL_RCC_GetSysClockFreq+0x184>)
 8003b0a:	63bb      	str	r3, [r7, #56]	@ 0x38
 8003b0c:	bf00      	nop
 8003b0e:	6bbb      	ldr	r3, [r7, #56]	@ 0x38
 8003b10:	4618      	mov	r0, r3
 8003b12:	3740      	adds	r7, #64	@ 0x40
 8003b14:	46bd      	mov	sp, r7
 8003b16:	e8bd 8fb0 	ldmia.w	sp!, {r4, r5, r7, r8, r9, sl, fp, pc}
 8003b1a:	bf00      	nop
 8003b1c:	40023800 	.word	0x40023800
 8003b20:	00f42400 	.word	0x00f42400
 8003b24:	017d7840 	.word	0x017d7840

08003b28 <HAL_RCC_GetHCLKFreq>:
 8003b28:	b480      	push	{r7}
 8003b2a:	af00      	add	r7, sp, #0
 8003b2c:	4b03      	ldr	r3, [pc, #12]	@ (8003b3c <HAL_RCC_GetHCLKFreq+0x14>)
 8003b2e:	681b      	ldr	r3, [r3, #0]
 8003b30:	4618      	mov	r0, r3
 8003b32:	46bd      	mov	sp, r7
 8003b34:	f85d 7b04 	ldr.w	r7, [sp], #4
 8003b38:	4770      	bx	lr
 8003b3a:	bf00      	nop
 8003b3c:	20000000 	.word	0x20000000

08003b40 <HAL_RCC_GetPCLK1Freq>:
 8003b40:	b580      	push	{r7, lr}
 8003b42:	af00      	add	r7, sp, #0
 8003b44:	f7ff fff0 	bl	8003b28 <HAL_RCC_GetHCLKFreq>
 8003b48:	4602      	mov	r2, r0
 8003b4a:	4b05      	ldr	r3, [pc, #20]	@ (8003b60 <HAL_RCC_GetPCLK1Freq+0x20>)
 8003b4c:	689b      	ldr	r3, [r3, #8]
 8003b4e:	0a9b      	lsrs	r3, r3, #10
 8003b50:	f003 0307 	and.w	r3, r3, #7
 8003b54:	4903      	ldr	r1, [pc, #12]	@ (8003b64 <HAL_RCC_GetPCLK1Freq+0x24>)
 8003b56:	5ccb      	ldrb	r3, [r1, r3]
 8003b58:	fa22 f303 	lsr.w	r3, r2, r3
 8003b5c:	4618      	mov	r0, r3
 8003b5e:	bd80      	pop	{r7, pc}
 8003b60:	40023800 	.word	0x40023800
 8003b64:	08003e6c 	.word	0x08003e6c

08003b68 <HAL_RCCEx_PeriphCLKConfig>:
 8003b68:	b580      	push	{r7, lr}
 8003b6a:	b086      	sub	sp, #24
 8003b6c:	af00      	add	r7, sp, #0
 8003b6e:	6078      	str	r0, [r7, #4]
 8003b70:	2300      	movs	r3, #0
 8003b72:	617b      	str	r3, [r7, #20]
 8003b74:	2300      	movs	r3, #0
 8003b76:	613b      	str	r3, [r7, #16]
 8003b78:	687b      	ldr	r3, [r7, #4]
 8003b7a:	681b      	ldr	r3, [r3, #0]
 8003b7c:	f003 0301 	and.w	r3, r3, #1
 8003b80:	2b00      	cmp	r3, #0
 8003b82:	d105      	bne.n	8003b90 <HAL_RCCEx_PeriphCLKConfig+0x28>
 8003b84:	687b      	ldr	r3, [r7, #4]
 8003b86:	681b      	ldr	r3, [r3, #0]
 8003b88:	f003 0304 	and.w	r3, r3, #4
 8003b8c:	2b00      	cmp	r3, #0
 8003b8e:	d035      	beq.n	8003bfc <HAL_RCCEx_PeriphCLKConfig+0x94>
 8003b90:	4b62      	ldr	r3, [pc, #392]	@ (8003d1c <HAL_RCCEx_PeriphCLKConfig+0x1b4>)
 8003b92:	2200      	movs	r2, #0
 8003b94:	601a      	str	r2, [r3, #0]
 8003b96:	f7fd faf7 	bl	8001188 <HAL_GetTick>
 8003b9a:	6178      	str	r0, [r7, #20]
 8003b9c:	e008      	b.n	8003bb0 <HAL_RCCEx_PeriphCLKConfig+0x48>
 8003b9e:	f7fd faf3 	bl	8001188 <HAL_GetTick>
 8003ba2:	4602      	mov	r2, r0
 8003ba4:	697b      	ldr	r3, [r7, #20]
 8003ba6:	1ad3      	subs	r3, r2, r3
 8003ba8:	2b02      	cmp	r3, #2
 8003baa:	d901      	bls.n	8003bb0 <HAL_RCCEx_PeriphCLKConfig+0x48>
 8003bac:	2303      	movs	r3, #3
 8003bae:	e0b0      	b.n	8003d12 <HAL_RCCEx_PeriphCLKConfig+0x1aa>
 8003bb0:	4b5b      	ldr	r3, [pc, #364]	@ (8003d20 <HAL_RCCEx_PeriphCLKConfig+0x1b8>)
 8003bb2:	681b      	ldr	r3, [r3, #0]
 8003bb4:	f003 6300 	and.w	r3, r3, #134217728	@ 0x8000000
 8003bb8:	2b00      	cmp	r3, #0
 8003bba:	d1f0      	bne.n	8003b9e <HAL_RCCEx_PeriphCLKConfig+0x36>
 8003bbc:	687b      	ldr	r3, [r7, #4]
 8003bbe:	685b      	ldr	r3, [r3, #4]
 8003bc0:	019a      	lsls	r2, r3, #6
 8003bc2:	687b      	ldr	r3, [r7, #4]
 8003bc4:	689b      	ldr	r3, [r3, #8]
 8003bc6:	071b      	lsls	r3, r3, #28
 8003bc8:	4955      	ldr	r1, [pc, #340]	@ (8003d20 <HAL_RCCEx_PeriphCLKConfig+0x1b8>)
 8003bca:	4313      	orrs	r3, r2
 8003bcc:	f8c1 3084 	str.w	r3, [r1, #132]	@ 0x84
 8003bd0:	4b52      	ldr	r3, [pc, #328]	@ (8003d1c <HAL_RCCEx_PeriphCLKConfig+0x1b4>)
 8003bd2:	2201      	movs	r2, #1
 8003bd4:	601a      	str	r2, [r3, #0]
 8003bd6:	f7fd fad7 	bl	8001188 <HAL_GetTick>
 8003bda:	6178      	str	r0, [r7, #20]
 8003bdc:	e008      	b.n	8003bf0 <HAL_RCCEx_PeriphCLKConfig+0x88>
 8003bde:	f7fd fad3 	bl	8001188 <HAL_GetTick>
 8003be2:	4602      	mov	r2, r0
 8003be4:	697b      	ldr	r3, [r7, #20]
 8003be6:	1ad3      	subs	r3, r2, r3
 8003be8:	2b02      	cmp	r3, #2
 8003bea:	d901      	bls.n	8003bf0 <HAL_RCCEx_PeriphCLKConfig+0x88>
 8003bec:	2303      	movs	r3, #3
 8003bee:	e090      	b.n	8003d12 <HAL_RCCEx_PeriphCLKConfig+0x1aa>
 8003bf0:	4b4b      	ldr	r3, [pc, #300]	@ (8003d20 <HAL_RCCEx_PeriphCLKConfig+0x1b8>)
 8003bf2:	681b      	ldr	r3, [r3, #0]
 8003bf4:	f003 6300 	and.w	r3, r3, #134217728	@ 0x8000000
 8003bf8:	2b00      	cmp	r3, #0
 8003bfa:	d0f0      	beq.n	8003bde <HAL_RCCEx_PeriphCLKConfig+0x76>
 8003bfc:	687b      	ldr	r3, [r7, #4]
 8003bfe:	681b      	ldr	r3, [r3, #0]
 8003c00:	f003 0302 	and.w	r3, r3, #2
 8003c04:	2b00      	cmp	r3, #0
 8003c06:	f000 8083 	beq.w	8003d10 <HAL_RCCEx_PeriphCLKConfig+0x1a8>
 8003c0a:	2300      	movs	r3, #0
 8003c0c:	60fb      	str	r3, [r7, #12]
 8003c0e:	4b44      	ldr	r3, [pc, #272]	@ (8003d20 <HAL_RCCEx_PeriphCLKConfig+0x1b8>)
 8003c10:	6c1b      	ldr	r3, [r3, #64]	@ 0x40
 8003c12:	4a43      	ldr	r2, [pc, #268]	@ (8003d20 <HAL_RCCEx_PeriphCLKConfig+0x1b8>)
 8003c14:	f043 5380 	orr.w	r3, r3, #268435456	@ 0x10000000
 8003c18:	6413      	str	r3, [r2, #64]	@ 0x40
 8003c1a:	4b41      	ldr	r3, [pc, #260]	@ (8003d20 <HAL_RCCEx_PeriphCLKConfig+0x1b8>)
 8003c1c:	6c1b      	ldr	r3, [r3, #64]	@ 0x40
 8003c1e:	f003 5380 	and.w	r3, r3, #268435456	@ 0x10000000
 8003c22:	60fb      	str	r3, [r7, #12]
 8003c24:	68fb      	ldr	r3, [r7, #12]
 8003c26:	4b3f      	ldr	r3, [pc, #252]	@ (8003d24 <HAL_RCCEx_PeriphCLKConfig+0x1bc>)
 8003c28:	681b      	ldr	r3, [r3, #0]
 8003c2a:	4a3e      	ldr	r2, [pc, #248]	@ (8003d24 <HAL_RCCEx_PeriphCLKConfig+0x1bc>)
 8003c2c:	f443 7380 	orr.w	r3, r3, #256	@ 0x100
 8003c30:	6013      	str	r3, [r2, #0]
 8003c32:	f7fd faa9 	bl	8001188 <HAL_GetTick>
 8003c36:	6178      	str	r0, [r7, #20]
 8003c38:	e008      	b.n	8003c4c <HAL_RCCEx_PeriphCLKConfig+0xe4>
 8003c3a:	f7fd faa5 	bl	8001188 <HAL_GetTick>
 8003c3e:	4602      	mov	r2, r0
 8003c40:	697b      	ldr	r3, [r7, #20]
 8003c42:	1ad3      	subs	r3, r2, r3
 8003c44:	2b02      	cmp	r3, #2
 8003c46:	d901      	bls.n	8003c4c <HAL_RCCEx_PeriphCLKConfig+0xe4>
 8003c48:	2303      	movs	r3, #3
 8003c4a:	e062      	b.n	8003d12 <HAL_RCCEx_PeriphCLKConfig+0x1aa>
 8003c4c:	4b35      	ldr	r3, [pc, #212]	@ (8003d24 <HAL_RCCEx_PeriphCLKConfig+0x1bc>)
 8003c4e:	681b      	ldr	r3, [r3, #0]
 8003c50:	f403 7380 	and.w	r3, r3, #256	@ 0x100
 8003c54:	2b00      	cmp	r3, #0
 8003c56:	d0f0      	beq.n	8003c3a <HAL_RCCEx_PeriphCLKConfig+0xd2>
 8003c58:	4b31      	ldr	r3, [pc, #196]	@ (8003d20 <HAL_RCCEx_PeriphCLKConfig+0x1b8>)
 8003c5a:	6f1b      	ldr	r3, [r3, #112]	@ 0x70
 8003c5c:	f403 7340 	and.w	r3, r3, #768	@ 0x300
 8003c60:	613b      	str	r3, [r7, #16]
 8003c62:	693b      	ldr	r3, [r7, #16]
 8003c64:	2b00      	cmp	r3, #0
 8003c66:	d02f      	beq.n	8003cc8 <HAL_RCCEx_PeriphCLKConfig+0x160>
 8003c68:	687b      	ldr	r3, [r7, #4]
 8003c6a:	68db      	ldr	r3, [r3, #12]
 8003c6c:	f403 7340 	and.w	r3, r3, #768	@ 0x300
 8003c70:	693a      	ldr	r2, [r7, #16]
 8003c72:	429a      	cmp	r2, r3
 8003c74:	d028      	beq.n	8003cc8 <HAL_RCCEx_PeriphCLKConfig+0x160>
 8003c76:	4b2a      	ldr	r3, [pc, #168]	@ (8003d20 <HAL_RCCEx_PeriphCLKConfig+0x1b8>)
 8003c78:	6f1b      	ldr	r3, [r3, #112]	@ 0x70
 8003c7a:	f423 7340 	bic.w	r3, r3, #768	@ 0x300
 8003c7e:	613b      	str	r3, [r7, #16]
 8003c80:	4b29      	ldr	r3, [pc, #164]	@ (8003d28 <HAL_RCCEx_PeriphCLKConfig+0x1c0>)
 8003c82:	2201      	movs	r2, #1
 8003c84:	601a      	str	r2, [r3, #0]
 8003c86:	4b28      	ldr	r3, [pc, #160]	@ (8003d28 <HAL_RCCEx_PeriphCLKConfig+0x1c0>)
 8003c88:	2200      	movs	r2, #0
 8003c8a:	601a      	str	r2, [r3, #0]
 8003c8c:	4a24      	ldr	r2, [pc, #144]	@ (8003d20 <HAL_RCCEx_PeriphCLKConfig+0x1b8>)
 8003c8e:	693b      	ldr	r3, [r7, #16]
 8003c90:	6713      	str	r3, [r2, #112]	@ 0x70
 8003c92:	4b23      	ldr	r3, [pc, #140]	@ (8003d20 <HAL_RCCEx_PeriphCLKConfig+0x1b8>)
 8003c94:	6f1b      	ldr	r3, [r3, #112]	@ 0x70
 8003c96:	f003 0301 	and.w	r3, r3, #1
 8003c9a:	2b01      	cmp	r3, #1
 8003c9c:	d114      	bne.n	8003cc8 <HAL_RCCEx_PeriphCLKConfig+0x160>
 8003c9e:	f7fd fa73 	bl	8001188 <HAL_GetTick>
 8003ca2:	6178      	str	r0, [r7, #20]
 8003ca4:	e00a      	b.n	8003cbc <HAL_RCCEx_PeriphCLKConfig+0x154>
 8003ca6:	f7fd fa6f 	bl	8001188 <HAL_GetTick>
 8003caa:	4602      	mov	r2, r0
 8003cac:	697b      	ldr	r3, [r7, #20]
 8003cae:	1ad3      	subs	r3, r2, r3
 8003cb0:	f241 3288 	movw	r2, #5000	@ 0x1388
 8003cb4:	4293      	cmp	r3, r2
 8003cb6:	d901      	bls.n	8003cbc <HAL_RCCEx_PeriphCLKConfig+0x154>
 8003cb8:	2303      	movs	r3, #3
 8003cba:	e02a      	b.n	8003d12 <HAL_RCCEx_PeriphCLKConfig+0x1aa>
 8003cbc:	4b18      	ldr	r3, [pc, #96]	@ (8003d20 <HAL_RCCEx_PeriphCLKConfig+0x1b8>)
 8003cbe:	6f1b      	ldr	r3, [r3, #112]	@ 0x70
 8003cc0:	f003 0302 	and.w	r3, r3, #2
 8003cc4:	2b00      	cmp	r3, #0
 8003cc6:	d0ee      	beq.n	8003ca6 <HAL_RCCEx_PeriphCLKConfig+0x13e>
 8003cc8:	687b      	ldr	r3, [r7, #4]
 8003cca:	68db      	ldr	r3, [r3, #12]
 8003ccc:	f403 7340 	and.w	r3, r3, #768	@ 0x300
 8003cd0:	f5b3 7f40 	cmp.w	r3, #768	@ 0x300
 8003cd4:	d10d      	bne.n	8003cf2 <HAL_RCCEx_PeriphCLKConfig+0x18a>
 8003cd6:	4b12      	ldr	r3, [pc, #72]	@ (8003d20 <HAL_RCCEx_PeriphCLKConfig+0x1b8>)
 8003cd8:	689b      	ldr	r3, [r3, #8]
 8003cda:	f423 12f8 	bic.w	r2, r3, #2031616	@ 0x1f0000
 8003cde:	687b      	ldr	r3, [r7, #4]
 8003ce0:	68db      	ldr	r3, [r3, #12]
 8003ce2:	f023 4370 	bic.w	r3, r3, #4026531840	@ 0xf0000000
 8003ce6:	f423 7340 	bic.w	r3, r3, #768	@ 0x300
 8003cea:	490d      	ldr	r1, [pc, #52]	@ (8003d20 <HAL_RCCEx_PeriphCLKConfig+0x1b8>)
 8003cec:	4313      	orrs	r3, r2
 8003cee:	608b      	str	r3, [r1, #8]
 8003cf0:	e005      	b.n	8003cfe <HAL_RCCEx_PeriphCLKConfig+0x196>
 8003cf2:	4b0b      	ldr	r3, [pc, #44]	@ (8003d20 <HAL_RCCEx_PeriphCLKConfig+0x1b8>)
 8003cf4:	689b      	ldr	r3, [r3, #8]
 8003cf6:	4a0a      	ldr	r2, [pc, #40]	@ (8003d20 <HAL_RCCEx_PeriphCLKConfig+0x1b8>)
 8003cf8:	f423 13f8 	bic.w	r3, r3, #2031616	@ 0x1f0000
 8003cfc:	6093      	str	r3, [r2, #8]
 8003cfe:	4b08      	ldr	r3, [pc, #32]	@ (8003d20 <HAL_RCCEx_PeriphCLKConfig+0x1b8>)
 8003d00:	6f1a      	ldr	r2, [r3, #112]	@ 0x70
 8003d02:	687b      	ldr	r3, [r7, #4]
 8003d04:	68db      	ldr	r3, [r3, #12]
 8003d06:	f3c3 030b 	ubfx	r3, r3, #0, #12
 8003d0a:	4905      	ldr	r1, [pc, #20]	@ (8003d20 <HAL_RCCEx_PeriphCLKConfig+0x1b8>)
 8003d0c:	4313      	orrs	r3, r2
 8003d0e:	670b      	str	r3, [r1, #112]	@ 0x70
 8003d10:	2300      	movs	r3, #0
 8003d12:	4618      	mov	r0, r3
 8003d14:	3718      	adds	r7, #24
 8003d16:	46bd      	mov	sp, r7
 8003d18:	bd80      	pop	{r7, pc}
 8003d1a:	bf00      	nop
 8003d1c:	42470068 	.word	0x42470068
 8003d20:	40023800 	.word	0x40023800
 8003d24:	40007000 	.word	0x40007000
 8003d28:	42470e40 	.word	0x42470e40

08003d2c <HAL_RCCEx_GetPeriphCLKFreq>:
 8003d2c:	b480      	push	{r7}
 8003d2e:	b087      	sub	sp, #28
 8003d30:	af00      	add	r7, sp, #0
 8003d32:	6078      	str	r0, [r7, #4]
 8003d34:	2300      	movs	r3, #0
 8003d36:	617b      	str	r3, [r7, #20]
 8003d38:	2300      	movs	r3, #0
 8003d3a:	613b      	str	r3, [r7, #16]
 8003d3c:	2300      	movs	r3, #0
 8003d3e:	60fb      	str	r3, [r7, #12]
 8003d40:	2300      	movs	r3, #0
 8003d42:	60bb      	str	r3, [r7, #8]
 8003d44:	687b      	ldr	r3, [r7, #4]
 8003d46:	2b01      	cmp	r3, #1
 8003d48:	d13f      	bne.n	8003dca <HAL_RCCEx_GetPeriphCLKFreq+0x9e>
 8003d4a:	4b24      	ldr	r3, [pc, #144]	@ (8003ddc <HAL_RCCEx_GetPeriphCLKFreq+0xb0>)
 8003d4c:	689b      	ldr	r3, [r3, #8]
 8003d4e:	f403 0300 	and.w	r3, r3, #8388608	@ 0x800000
 8003d52:	60fb      	str	r3, [r7, #12]
 8003d54:	68fb      	ldr	r3, [r7, #12]
 8003d56:	2b00      	cmp	r3, #0
 8003d58:	d006      	beq.n	8003d68 <HAL_RCCEx_GetPeriphCLKFreq+0x3c>
 8003d5a:	68fb      	ldr	r3, [r7, #12]
 8003d5c:	f5b3 0f00 	cmp.w	r3, #8388608	@ 0x800000
 8003d60:	d12f      	bne.n	8003dc2 <HAL_RCCEx_GetPeriphCLKFreq+0x96>
 8003d62:	4b1f      	ldr	r3, [pc, #124]	@ (8003de0 <HAL_RCCEx_GetPeriphCLKFreq+0xb4>)
 8003d64:	617b      	str	r3, [r7, #20]
 8003d66:	e02f      	b.n	8003dc8 <HAL_RCCEx_GetPeriphCLKFreq+0x9c>
 8003d68:	4b1c      	ldr	r3, [pc, #112]	@ (8003ddc <HAL_RCCEx_GetPeriphCLKFreq+0xb0>)
 8003d6a:	685b      	ldr	r3, [r3, #4]
 8003d6c:	f403 0380 	and.w	r3, r3, #4194304	@ 0x400000
 8003d70:	f5b3 0f80 	cmp.w	r3, #4194304	@ 0x400000
 8003d74:	d108      	bne.n	8003d88 <HAL_RCCEx_GetPeriphCLKFreq+0x5c>
 8003d76:	4b19      	ldr	r3, [pc, #100]	@ (8003ddc <HAL_RCCEx_GetPeriphCLKFreq+0xb0>)
 8003d78:	685b      	ldr	r3, [r3, #4]
 8003d7a:	f003 033f 	and.w	r3, r3, #63	@ 0x3f
 8003d7e:	4a19      	ldr	r2, [pc, #100]	@ (8003de4 <HAL_RCCEx_GetPeriphCLKFreq+0xb8>)
 8003d80:	fbb2 f3f3 	udiv	r3, r2, r3
 8003d84:	613b      	str	r3, [r7, #16]
 8003d86:	e007      	b.n	8003d98 <HAL_RCCEx_GetPeriphCLKFreq+0x6c>
 8003d88:	4b14      	ldr	r3, [pc, #80]	@ (8003ddc <HAL_RCCEx_GetPeriphCLKFreq+0xb0>)
 8003d8a:	685b      	ldr	r3, [r3, #4]
 8003d8c:	f003 033f 	and.w	r3, r3, #63	@ 0x3f
 8003d90:	4a15      	ldr	r2, [pc, #84]	@ (8003de8 <HAL_RCCEx_GetPeriphCLKFreq+0xbc>)
 8003d92:	fbb2 f3f3 	udiv	r3, r2, r3
 8003d96:	613b      	str	r3, [r7, #16]
 8003d98:	4b10      	ldr	r3, [pc, #64]	@ (8003ddc <HAL_RCCEx_GetPeriphCLKFreq+0xb0>)
 8003d9a:	f8d3 3084 	ldr.w	r3, [r3, #132]	@ 0x84
 8003d9e:	099b      	lsrs	r3, r3, #6
 8003da0:	f3c3 0208 	ubfx	r2, r3, #0, #9
 8003da4:	693b      	ldr	r3, [r7, #16]
 8003da6:	fb02 f303 	mul.w	r3, r2, r3
 8003daa:	60bb      	str	r3, [r7, #8]
 8003dac:	4b0b      	ldr	r3, [pc, #44]	@ (8003ddc <HAL_RCCEx_GetPeriphCLKFreq+0xb0>)
 8003dae:	f8d3 3084 	ldr.w	r3, [r3, #132]	@ 0x84
 8003db2:	0f1b      	lsrs	r3, r3, #28
 8003db4:	f003 0307 	and.w	r3, r3, #7
 8003db8:	68ba      	ldr	r2, [r7, #8]
 8003dba:	fbb2 f3f3 	udiv	r3, r2, r3
 8003dbe:	617b      	str	r3, [r7, #20]
 8003dc0:	e002      	b.n	8003dc8 <HAL_RCCEx_GetPeriphCLKFreq+0x9c>
 8003dc2:	2300      	movs	r3, #0
 8003dc4:	617b      	str	r3, [r7, #20]
 8003dc6:	bf00      	nop
 8003dc8:	e000      	b.n	8003dcc <HAL_RCCEx_GetPeriphCLKFreq+0xa0>
 8003dca:	bf00      	nop
 8003dcc:	697b      	ldr	r3, [r7, #20]
 8003dce:	4618      	mov	r0, r3
 8003dd0:	371c      	adds	r7, #28
 8003dd2:	46bd      	mov	sp, r7
 8003dd4:	f85d 7b04 	ldr.w	r7, [sp], #4
 8003dd8:	4770      	bx	lr
 8003dda:	bf00      	nop
 8003ddc:	40023800 	.word	0x40023800
 8003de0:	00bb8000 	.word	0x00bb8000
 8003de4:	017d7840 	.word	0x017d7840
 8003de8:	00f42400 	.word	0x00f42400

08003dec <memset>:
 8003dec:	4402      	add	r2, r0
 8003dee:	4603      	mov	r3, r0
 8003df0:	4293      	cmp	r3, r2
 8003df2:	d100      	bne.n	8003df6 <memset+0xa>
 8003df4:	4770      	bx	lr
 8003df6:	f803 1b01 	strb.w	r1, [r3], #1
 8003dfa:	e7f9      	b.n	8003df0 <memset+0x4>

08003dfc <__libc_init_array>:
 8003dfc:	b570      	push	{r4, r5, r6, lr}
 8003dfe:	4d0d      	ldr	r5, [pc, #52]	@ (8003e34 <__libc_init_array+0x38>)
 8003e00:	4c0d      	ldr	r4, [pc, #52]	@ (8003e38 <__libc_init_array+0x3c>)
 8003e02:	1b64      	subs	r4, r4, r5
 8003e04:	10a4      	asrs	r4, r4, #2
 8003e06:	2600      	movs	r6, #0
 8003e08:	42a6      	cmp	r6, r4
 8003e0a:	d109      	bne.n	8003e20 <__libc_init_array+0x24>
 8003e0c:	4d0b      	ldr	r5, [pc, #44]	@ (8003e3c <__libc_init_array+0x40>)
 8003e0e:	4c0c      	ldr	r4, [pc, #48]	@ (8003e40 <__libc_init_array+0x44>)
 8003e10:	f000 f818 	bl	8003e44 <_init>
 8003e14:	1b64      	subs	r4, r4, r5
 8003e16:	10a4      	asrs	r4, r4, #2
 8003e18:	2600      	movs	r6, #0
 8003e1a:	42a6      	cmp	r6, r4
 8003e1c:	d105      	bne.n	8003e2a <__libc_init_array+0x2e>
 8003e1e:	bd70      	pop	{r4, r5, r6, pc}
 8003e20:	f855 3b04 	ldr.w	r3, [r5], #4
 8003e24:	4798      	blx	r3
 8003e26:	3601      	adds	r6, #1
 8003e28:	e7ee      	b.n	8003e08 <__libc_init_array+0xc>
 8003e2a:	f855 3b04 	ldr.w	r3, [r5], #4
 8003e2e:	4798      	blx	r3
 8003e30:	3601      	adds	r6, #1
 8003e32:	e7f2      	b.n	8003e1a <__libc_init_array+0x1e>
 8003e34:	08003e84 	.word	0x08003e84
 8003e38:	08003e84 	.word	0x08003e84
 8003e3c:	08003e84 	.word	0x08003e84
 8003e40:	08003e88 	.word	0x08003e88

08003e44 <_init>:
 8003e44:	b5f8      	push	{r3, r4, r5, r6, r7, lr}
 8003e46:	bf00      	nop
 8003e48:	bcf8      	pop	{r3, r4, r5, r6, r7}
 8003e4a:	bc08      	pop	{r3}
 8003e4c:	469e      	mov	lr, r3
 8003e4e:	4770      	bx	lr

08003e50 <_fini>:
 8003e50:	b5f8      	push	{r3, r4, r5, r6, r7, lr}
 8003e52:	bf00      	nop
 8003e54:	bcf8      	pop	{r3, r4, r5, r6, r7}
 8003e56:	bc08      	pop	{r3}
 8003e58:	469e      	mov	lr, r3
 8003e5a:	4770      	bx	lr
